Microchip Technology Inc, v2.10 (B)

Tool Name:
  c:\program files\microchip\xc16\v2.10\bin\bin\..\bin/elf-ld.exe

Command:
  -TC:\\Users\\amasou02\\AppData\\Local\\Temp\\tmp000038b4.00 \
  -TC:\\Users\\amasou02\\AppData\\Local\\Temp\\tmp000038b4.01 \
  -TC:\\Users\\amasou02\\AppData\\Local\\Temp\\tmp000038b4.02 \
  -TC:\\Users\\amasou02\\AppData\\Local\\Temp\\tmp000038b4.03 \
  -TC:\\Users\\amasou02\\AppData\\Local\\Temp\\tmp000038b4.04 \
  -TC:\\Users\\amasou02\\AppData\\Local\\Temp\\tmp000038b4.05 \
  -TC:\\Users\\amasou02\\AppData\\Local\\Temp\\tmp000038b4.06 \
  -p33EP128GS804 \
  --mdfp=C:/Program Files/Microchip/MPLABX/v6.05/packs/Microchip/dsPIC33E-GS_DFP/1.3.91/xc16 \
  -o \
  dist/default/debug/blinky_button.X.debug.elf \
  -Lc:/program files/microchip/xc16/v2.10/bin/bin/.. \
  -LC:/Program Files/Microchip/MPLABX/v6.05/packs/Microchip/dsPIC33E-GS_DFP/1.3.91/xc16/bin/../support/dsPIC33E/gld \
  -Lc:/program files/microchip/xc16/v2.10/bin/bin/../../lib \
  -Lc:/program files/microchip/xc16/v2.10/bin/bin/../../support/PIC24E/gld \
  -Lc:/program files/microchip/xc16/v2.10/bin/bin/../../support/PIC24F/gld \
  -Lc:/program files/microchip/xc16/v2.10/bin/bin/../../support/PIC24H/gld \
  -Lc:/program files/microchip/xc16/v2.10/bin/bin/../../support/dsPIC30F/gld \
  -Lc:/program files/microchip/xc16/v2.10/bin/bin/../../support/dsPIC33C/gld \
  -Lc:/program files/microchip/xc16/v2.10/bin/bin/../../support/dsPIC33E/gld \
  -Lc:/program files/microchip/xc16/v2.10/bin/bin/../../support/dsPIC33F/gld \
  build/default/debug/blinky1.o \
  build/default/debug/blinky3.o \
  build/default/debug/bsp_dspic33ep128gs804.o \
  build/default/debug/button2a.o \
  build/default/debug/button2b.o \
  build/default/debug/_ext/1564044098/sst_port.o \
  build/default/debug/_ext/1445274692/sst.o \
  build/default/debug/main.o \
  build/default/debug/system_dspic33ep128gs804.o \
  --local-stack \
  --defsym=__MPLAB_BUILD=1 \
  --defsym=__MPLAB_DEBUG=1 \
  --defsym=__DEBUG=1 \
  --defsym=__MPLAB_DEBUGGER_PK3=1 \
  -Tp33EP128GS804.gld.07 \
  --stack=16 \
  --check-sections \
  --data-init \
  --pack-data \
  --handles \
  --isr \
  --no-gc-sections \
  --fill-upper=0 \
  --stackguard=16 \
  --no-force-link \
  --smart-io \
  -Map=dist/default/debug/blinky_button.X.debug.map \
  --report-mem \
  --memorysummary \
  dist/default/debug/memoryfile.xml \
  -start-group \
  --library=c99-pic30-elf \
  --library=m-elf \
  --library=c99-elf \
  -end-group \


Optional library libp33EP128GS804.a not found
Archive member included because of file (symbol)

c:/program files/microchip/xc16/v2.10/bin/bin/../../lib\libc99-pic30-elf.a(crt0_extendedep.o)
                              (__resetPRI)
c:/program files/microchip/xc16/v2.10/bin/bin/../../lib\libc99-pic30-elf.a(data_init_extended.o)
                              c:/program files/microchip/xc16/v2.10/bin/bin/../../lib\libc99-pic30-elf.a(crt0_extendedep.o) (__data_init_extended)
c:/program files/microchip/xc16/v2.10/bin/bin/../../lib\libc99-pic30-elf.a(crt_start_mode_normalep.Meo)
                              (__crt_start_mode_normal)
c:/program files/microchip/xc16/v2.10/bin/bin/../../lib\libc99-pic30-elf.a(feqltle.EP_o)
                              build/default/debug/bsp_dspic33ep128gs804.o (___lesf2)
c:/program files/microchip/xc16/v2.10/bin/bin/../../lib\libc99-pic30-elf.a(fgtge.EP_o)
                              build/default/debug/bsp_dspic33ep128gs804.o (___gesf2)
c:/program files/microchip/xc16/v2.10/bin/bin/../../lib\libc99-pic30-elf.a(fixunssfsi.EP_o)
                              build/default/debug/system_dspic33ep128gs804.o (___fixunssfsi)
c:/program files/microchip/xc16/v2.10/bin/bin/../../lib\libc99-pic30-elf.a(floatunsisf.EP_o)
                              build/default/debug/system_dspic33ep128gs804.o (___floatunsisf)
c:/program files/microchip/xc16/v2.10/bin/bin/../../lib\libc99-pic30-elf.a(funpack.EP_o)
                              c:/program files/microchip/xc16/v2.10/bin/bin/../../lib\libc99-pic30-elf.a(fixunssfsi.EP_o) (__funpack)
c:/program files/microchip/xc16/v2.10/bin/bin/../../lib\libc99-pic30-elf.a(addsf3x.EP_o)
                              build/default/debug/bsp_dspic33ep128gs804.o (___subsf3)
c:/program files/microchip/xc16/v2.10/bin/bin/../../lib\libc99-pic30-elf.a(divsf3x.EP_o)
                              build/default/debug/bsp_dspic33ep128gs804.o (___divsf3)
c:/program files/microchip/xc16/v2.10/bin/bin/../../lib\libc99-pic30-elf.a(mulsf3x.EP_o)
                              build/default/debug/system_dspic33ep128gs804.o (___mulsf3)
c:/program files/microchip/xc16/v2.10/bin/bin/../../lib\libc99-pic30-elf.a(dnrmpackfx.EP_o)
                              c:/program files/microchip/xc16/v2.10/bin/bin/../../lib\libc99-pic30-elf.a(addsf3x.EP_o) (__dnrmpackf)
c:/program files/microchip/xc16/v2.10/bin/bin/../../lib\libc99-pic30-elf.a(unpackdnrmfx.EP_o)
                              c:/program files/microchip/xc16/v2.10/bin/bin/../../lib\libc99-pic30-elf.a(mulsf3x.EP_o) (__unpackdnrmf)
c:/program files/microchip/xc16/v2.10/bin/bin/../../lib\libc99-pic30-elf.a(typefx.EP_o)
                              c:/program files/microchip/xc16/v2.10/bin/bin/../../lib\libc99-pic30-elf.a(addsf3x.EP_o) (__typef)
c:/program files/microchip/xc16/v2.10/bin/bin/../../lib\libc99-pic30-elf.a(propnanfx.EP_o)
                              c:/program files/microchip/xc16/v2.10/bin/bin/../../lib\libc99-pic30-elf.a(addsf3x.EP_o) (__propnanf)
c:/program files/microchip/xc16/v2.10/bin/bin/../../lib\libc99-pic30-elf.a(spackfx.EP_o)
                              c:/program files/microchip/xc16/v2.10/bin/bin/../../lib\libc99-pic30-elf.a(divsf3x.EP_o) (__spackf)
c:/program files/microchip/xc16/v2.10/bin/bin/../../lib\libc99-pic30-elf.a(unpackfx.EP_o)
                              c:/program files/microchip/xc16/v2.10/bin/bin/../../lib\libc99-pic30-elf.a(divsf3x.EP_o) (__unpackf)
c:/program files/microchip/xc16/v2.10/bin/bin/../../lib\libc99-pic30-elf.a(errno.EP_o)
                              c:/program files/microchip/xc16/v2.10/bin/bin/../../lib\libc99-pic30-elf.a(divsf3x.EP_o) (_errno)
c:/program files/microchip/xc16/v2.10/bin/bin/../../lib\libc99-pic30-elf.a(fcompare.EP_o)
                              c:/program files/microchip/xc16/v2.10/bin/bin/../../lib\libc99-pic30-elf.a(feqltle.EP_o) (__fcompare)
c:/program files/microchip/xc16/v2.10/bin/bin/../../lib\libc99-pic30-elf.a(floatundisf.EP_o)
                              c:/program files/microchip/xc16/v2.10/bin/bin/../../lib\libc99-pic30-elf.a(floatunsisf.EP_o) (___floatundisf)
c:/program files/microchip/xc16/v2.10/bin/bin/../../lib\libc99-pic30-elf.a(fpack.EP_o)
                              c:/program files/microchip/xc16/v2.10/bin/bin/../../lib\libc99-pic30-elf.a(floatundisf.EP_o) (__fpack)
c:/program files/microchip/xc16/v2.10/bin/bin/../../lib\libc99-pic30-elf.a(funpack2.EP_o)
                              c:/program files/microchip/xc16/v2.10/bin/bin/../../lib\libc99-pic30-elf.a(fcompare.EP_o) (__funpack2)
c:/program files/microchip/xc16/v2.10/bin/bin/../../lib\libm-elf.a(sqrtf.EP_o)
                              build/default/debug/bsp_dspic33ep128gs804.o (_sqrtf)
c:/program files/microchip/xc16/v2.10/bin/bin/../../lib\libc99-elf.a(__errno_location.EP_o)
                              c:/program files/microchip/xc16/v2.10/bin/bin/../../lib\libm-elf.a(sqrtf.EP_o) (___errno_val)


Selected CodeGuard Options:
  FSEC:BWRP:OFF
  FSEC:BSS:DISABLED
  FSEC:BSEN:OFF
  FSEC:GWRP:OFF
  FSEC:GSS:DISABLED
  FSEC:CWRP:OFF
  FSEC:CSS:DISABLED
  FSEC:AIVTDIS:OFF

CodeGuard FLASH Memory:
  boot    (none)
  secure  (none)
  general 0x200 to 0x1577e

CodeGuard RAM Memory:
  general 0x1000 to 0x2fff
  secure  (none)
  boot    (none)


xc16-ld 2.10 (B)

Default Code Model: Small
Default Data Model: Large
Default Scalar Model: Small

"program" Memory  [Origin = 0x200, Length = 0x15580]

section                    address   length (PC units)   length (bytes) (dec)
-------                    -------   -----------------   --------------------
.text                        0x200               0xad8          0x1044  (4164)
.const                       0xcd8                0x6e            0xa5  (165)
.text                        0xd46               0xc7a          0x12b7  (4791)
.dinit                      0x19c0                0x44            0x66  (102)

                 Total "program" memory used (bytes):         0x2406  (9222) 7%


"data" Memory  [Origin = 0x1000, Length = 0x2000]

section                    address      alignment gaps    total length  (dec)
-------                    -------      --------------    -------------------
reserve_data_0x1000         0x1000                0x1c            0x1c  (28)
reserve_data_0x101c         0x101c                 0x2             0x2  (2)
reserve_data_0x101e         0x101e                 0x2             0x2  (2)
reserve_data_0x1020         0x1020                 0x2             0x2  (2)
reserve_data_0x1022         0x1022                 0x2             0x2  (2)
reserve_data_0x1024         0x1024                 0x4             0x4  (4)
reserve_data_0x1028         0x1028                0x28            0x28  (40)
.nbss                       0x1050                   0            0x16  (22)
.bss                        0x1066                   0            0x82  (130)

                 Total "data" memory used (bytes):           0xe8  (232) 2%


Dynamic Memory Usage

region                     address                      maximum length  (dec)
------                     -------                      ---------------------
heap                             0                                   0  (0)
stack                       0x10e8                              0x1f18  (7960)

                 Maximum dynamic memory (bytes):         0x1f18  (7960)

Info: Project is using a large data memory model when small data memory model is sufficient.


External Symbols in Data Memory (by address):

                    0x1060                  _g_crit_counter
                    0x10e6                  ___errno_val

External Symbols in Data Memory (by name):

                    0x10e6                  ___errno_val
                    0x1060                  _g_crit_counter

External Symbols in Program Memory (by address):

                  0x000200                  __resetPRI
                  0x00023c                  __psv_init
                  0x000248                  __data_init_extended
                  0x000248                  __data_init
                  0x00031a                  __T1Interrupt
                  0x000338                  __PTG0Interrupt
                  0x000358                  __PTG1Interrupt
                  0x000378                  __PTG2Interrupt
                  0x000398                  __PTG3Interrupt
                  0x0003b8                  __DefaultInterrupt
                  0x0003be                  ___lesf2
                  0x0003be                  ___eqsf2
                  0x0003be                  ___ltsf2
                  0x0003c2                  ___gtsf2
                  0x0003c2                  ___gesf2
                  0x0003c6                  ___fixunssfsi
                  0x0003fc                  ___floatunsisf
                  0x000400                  __funpack
                  0x00042a                  ___subsf3x
                  0x00042a                  ___subsf3
                  0x00043c                  ___addsf3x
                  0x00043c                  ___addsf3
                  0x000606                  ___divsf3
                  0x000606                  ___divsf3x
                  0x000798                  __sdivf
                  0x0007c4                  ___mulsf3x
                  0x0007c4                  ___mulsf3
                  0x0008d0                  __dnrmpackf
                  0x000924                  __unpackdnrmf
                  0x000982                  __typef
                  0x0009b6                  __propnanf
                  0x0009c8                  __spackf
                  0x000a6e                  __unpackf
                  0x000ad4                  __fcompare
                  0x000b0a                  ___floatundisf
                  0x000b68                  __fpack
                  0x000bb4                  __funpack2
                  0x000bc4                  _sqrtf
                  0x000d16                  _AO_Button2a
                  0x000d22                  _AO_Button2b
                  0x000d2c                  _AO_Blinky1
                  0x000d36                  _AO_Blinky3
                  0x000d46                  _SysTick_Handler
                  0x000e32                  _DBC_fault_handler
                  0x000e7e                  _assert_failed
                  0x000e8e                  _BSP_init
                  0x000f4e                  _BSP_d1on
                  0x000f5c                  _BSP_d1off
                  0x000f6a                  _BSP_d2on
                  0x000f7e                  _BSP_d2off
                  0x000f8c                  _BSP_d3on
                  0x000fa0                  _BSP_d3off
                  0x000fae                  _BSP_d4on
                  0x000fc2                  _BSP_d4off
                  0x000fd0                  _BSP_d5on
                  0x000fe4                  _BSP_d5off
                  0x000ff2                  _BSP_d6on
                  0x001006                  _BSP_d6off
                  0x001014                  _BSP_getWorkEvtBlinky1
                  0x001032                  _BSP_getWorkEvtBlinky3
                  0x001050                  _SST_onStart
                  0x001066                  _SST_onIdle
                  0x001070                  _gpio_set_level
                  0x00109e                  _gpio_get_level
                  0x0010ba                  _gpio_set_direction
                  0x0011dc                  _SysTick_Config
                  0x00123e                  _SystemCoreClockUpdate
                  0x00124e                  _dspic_SystemReset
                  0x001256                  _interrupt_SetPriority
                  0x0012ac                  _interrupt_Enable
                  0x0012d6                  _SST_Task_run
                  0x0012e0                  _SST_Task_ctor
                  0x0012f8                  _SST_Task_start
                  0x001350                  _SST_Task_post
                  0x0013cc                  _SST_TimeEvt_ctor
                  0x0013fa                  _SST_TimeEvt_arm
                  0x001428                  _SST_TimeEvt_disarm
                  0x001462                  _SST_TimeEvt_tick
                  0x00155a                  _SST_init
                  0x001560                  _SST_start
                  0x001566                  _SST_Task_setPrio
                  0x0015c8                  _SST_Task_activate
                  0x00164e                  _SST_Task_setIRQ
                  0x001660                  _SST_Task_lock
                  0x001690                  _SST_Task_unlock
                  0x0016ae                  _Button2a_instantiate
                  0x0016c8                  build/default/debug/button2a.o:_Button2a_init
                  0x0016d2                  build/default/debug/button2a.o:_Button2a_dispatch
                  0x00176e                  _Blinky1_instantiate
                  0x001794                  build/default/debug/blinky1.o:_Blinky1_init
                  0x0017cc                  build/default/debug/blinky1.o:_Blinky1_dispatch
                  0x00182c                  _Blinky3_instantiate
                  0x001852                  build/default/debug/blinky3.o:_Blinky3_init
                  0x00188a                  build/default/debug/blinky3.o:_Blinky3_dispatch
                  0x0018e0                  _Button2b_instantiate
                  0x0018fa                  build/default/debug/button2b.o:_Button2b_init
                  0x001904                  build/default/debug/button2b.o:_Button2b_dispatch
                  0x001970                  _main
                  0x015780                  __FSEC.sec

External Symbols in Program Memory (by name):

                  0x000d2c                  _AO_Blinky1
                  0x000d36                  _AO_Blinky3
                  0x000d16                  _AO_Button2a
                  0x000d22                  _AO_Button2b
                  0x000f5c                  _BSP_d1off
                  0x000f4e                  _BSP_d1on
                  0x000f7e                  _BSP_d2off
                  0x000f6a                  _BSP_d2on
                  0x000fa0                  _BSP_d3off
                  0x000f8c                  _BSP_d3on
                  0x000fc2                  _BSP_d4off
                  0x000fae                  _BSP_d4on
                  0x000fe4                  _BSP_d5off
                  0x000fd0                  _BSP_d5on
                  0x001006                  _BSP_d6off
                  0x000ff2                  _BSP_d6on
                  0x001014                  _BSP_getWorkEvtBlinky1
                  0x001032                  _BSP_getWorkEvtBlinky3
                  0x000e8e                  _BSP_init
                  0x00176e                  _Blinky1_instantiate
                  0x00182c                  _Blinky3_instantiate
                  0x0016ae                  _Button2a_instantiate
                  0x0018e0                  _Button2b_instantiate
                  0x000e32                  _DBC_fault_handler
                  0x0015c8                  _SST_Task_activate
                  0x0012e0                  _SST_Task_ctor
                  0x001660                  _SST_Task_lock
                  0x001350                  _SST_Task_post
                  0x0012d6                  _SST_Task_run
                  0x00164e                  _SST_Task_setIRQ
                  0x001566                  _SST_Task_setPrio
                  0x0012f8                  _SST_Task_start
                  0x001690                  _SST_Task_unlock
                  0x0013fa                  _SST_TimeEvt_arm
                  0x0013cc                  _SST_TimeEvt_ctor
                  0x001428                  _SST_TimeEvt_disarm
                  0x001462                  _SST_TimeEvt_tick
                  0x00155a                  _SST_init
                  0x001066                  _SST_onIdle
                  0x001050                  _SST_onStart
                  0x001560                  _SST_start
                  0x0011dc                  _SysTick_Config
                  0x000d46                  _SysTick_Handler
                  0x00123e                  _SystemCoreClockUpdate
                  0x0003b8                  __DefaultInterrupt
                  0x015780                  __FSEC.sec
                  0x000338                  __PTG0Interrupt
                  0x000358                  __PTG1Interrupt
                  0x000378                  __PTG2Interrupt
                  0x000398                  __PTG3Interrupt
                  0x00031a                  __T1Interrupt
                  0x00043c                  ___addsf3
                  0x00043c                  ___addsf3x
                  0x000606                  ___divsf3
                  0x000606                  ___divsf3x
                  0x0003be                  ___eqsf2
                  0x0003c6                  ___fixunssfsi
                  0x000b0a                  ___floatundisf
                  0x0003fc                  ___floatunsisf
                  0x0003c2                  ___gesf2
                  0x0003c2                  ___gtsf2
                  0x0003be                  ___lesf2
                  0x0003be                  ___ltsf2
                  0x0007c4                  ___mulsf3
                  0x0007c4                  ___mulsf3x
                  0x00042a                  ___subsf3
                  0x00042a                  ___subsf3x
                  0x000248                  __data_init
                  0x000248                  __data_init_extended
                  0x0008d0                  __dnrmpackf
                  0x000ad4                  __fcompare
                  0x000b68                  __fpack
                  0x000400                  __funpack
                  0x000bb4                  __funpack2
                  0x0009b6                  __propnanf
                  0x00023c                  __psv_init
                  0x000200                  __resetPRI
                  0x000798                  __sdivf
                  0x0009c8                  __spackf
                  0x000982                  __typef
                  0x000924                  __unpackdnrmf
                  0x000a6e                  __unpackf
                  0x000e7e                  _assert_failed
                  0x00124e                  _dspic_SystemReset
                  0x00109e                  _gpio_get_level
                  0x0010ba                  _gpio_set_direction
                  0x001070                  _gpio_set_level
                  0x0012ac                  _interrupt_Enable
                  0x001256                  _interrupt_SetPriority
                  0x001970                  _main
                  0x000bc4                  _sqrtf
                  0x0017cc                  build/default/debug/blinky1.o:_Blinky1_dispatch
                  0x001794                  build/default/debug/blinky1.o:_Blinky1_init
                  0x00188a                  build/default/debug/blinky3.o:_Blinky3_dispatch
                  0x001852                  build/default/debug/blinky3.o:_Blinky3_init
                  0x0016d2                  build/default/debug/button2a.o:_Button2a_dispatch
                  0x0016c8                  build/default/debug/button2a.o:_Button2a_init
                  0x001904                  build/default/debug/button2b.o:_Button2b_dispatch
                  0x0018fa                  build/default/debug/button2b.o:_Button2b_init

Memory Configuration

Name             Origin             Length             Attributes
data             0x001000           0x002000           a !xr
pga1cal          0x800e48           0x000002  
pga2cal          0x800e4c           0x000002  
isrccal          0x800e78           0x000002  
FBOOT            0x801000           0x000002  
reset            0x000000           0x000004  
ivt              0x000004           0x0001fc  
program          0x000200           0x015580           xr
FSEC             0x015780           0x000002  
FBSLIM           0x015790           0x000002  
FSIGN            0x015794           0x000002  
FOSCSEL          0x015798           0x000002  
FOSC             0x01579c           0x000002  
FWDT             0x0157a0           0x000002  
FPOR             0x0157a4           0x000002  
FICD             0x0157a8           0x000002  
FDEVOPT          0x0157ac           0x000002  
FALTREG          0x0157b0           0x000002  
FBTSEQ           0x0157fc           0x000002  
*default*        0x000000           0xffffffff  

Linker script and memory map


reserve_data_0x1000
                    0x1000         0x1c
                    0x101c                  . = 0x1c
 *fill*             0x1000         0x1c00

reserve_data_0x101c
                    0x101c          0x2
                    0x101e                  . = 0x2
 *fill*             0x101c          0x200

reserve_data_0x101e
                    0x101e          0x2
                    0x1020                  . = 0x2
 *fill*             0x101e          0x200

reserve_data_0x1020
                    0x1020          0x2
                    0x1022                  . = 0x2
 *fill*             0x1020          0x200

reserve_data_0x1022
                    0x1022          0x2
                    0x1024                  . = 0x2
 *fill*             0x1022          0x200

reserve_data_0x1024
                    0x1024          0x4
                    0x1028                  . = 0x4
 *fill*             0x1024          0x400

reserve_data_0x1028
                    0x1028         0x28
                    0x1050                  . = 0x28
 *fill*             0x1028         0x2800
LOAD build/default/debug/blinky1.o
LOAD build/default/debug/blinky3.o
LOAD build/default/debug/bsp_dspic33ep128gs804.o
LOAD build/default/debug/button2a.o
LOAD build/default/debug/button2b.o
LOAD build/default/debug/_ext/1564044098/sst_port.o
LOAD build/default/debug/_ext/1445274692/sst.o
LOAD build/default/debug/main.o
LOAD build/default/debug/system_dspic33ep128gs804.o
                    0x0001                  __MPLAB_BUILD = 0x1
                    0x0001                  __MPLAB_DEBUG = 0x1
                    0x0001                  __DEBUG = 0x1
                    0x0001                  __MPLAB_DEBUGGER_PK3 = 0x1
LOAD p33EP128GS804
LOAD c:/program files/microchip/xc16/v2.10/bin/bin/../../lib\libfx-elf.a
                    0x801000                  __FBOOT = 0x801000
                    0x15780                  __FSEC = 0x15780
                    0x15790                  __FBSLIM = 0x15790
                    0x15794                  __FSIGN = 0x15794
                    0x15798                  __FOSCSEL = 0x15798
                    0x1579c                  __FOSC = 0x1579c
                    0x157a0                  __FWDT = 0x157a0
                    0x157a4                  __FPOR = 0x157a4
                    0x157a8                  __FICD = 0x157a8
                    0x157ac                  __FDEVOPT = 0x157ac
                    0x157b0                  __FALTREG = 0x157b0
                    0x157fc                  __FBTSEQ = 0x157fc
                    0x0200                  __CODE_BASE = 0x200
                    0x15580                  __CODE_LENGTH = 0x15580
                    0x0004                  __IVT_BASE = 0x4
                    0x1000                  __DATA_BASE = 0x1000
                    0x2000                  __DATA_LENGTH = 0x2000
                    0x2000                  __YDATA_BASE = 0x2000

.reset            0x000000          0x4
                  0x000000          0x2 SHORT 0x200 ABSOLUTE (__reset)
                  0x000001          0x2 SHORT 0x4
                  0x000002          0x2 SHORT 0x0 ((ABSOLUTE (__reset) >> 0x10) & 0x7f)
                  0x000003          0x2 SHORT 0x0

.text             0x000200        0xad8
 *(.init)
 .init            0x000200         0x48 c:/program files/microchip/xc16/v2.10/bin/bin/../../lib\libc99-pic30-elf.a(crt0_extendedep.o)
                  0x000200                  __resetPRI
                  0x000200                  __reset
                  0x00023c                  __psv_init
 .init            0x000248         0xb2 c:/program files/microchip/xc16/v2.10/bin/bin/../../lib\libc99-pic30-elf.a(data_init_extended.o)
                  0x000248                  __data_init
                  0x000248                  __data_init_extended
 *(.user_init)
 *(.handle)
 .handle          0x0002fa         0x20 jump_table
 *(.isr*)
 .isr.text        0x00031a         0x9e build/default/debug/bsp_dspic33ep128gs804.o
                  0x00031a                  __T1Interrupt
                  0x000338                  __PTG0Interrupt
                  0x000358                  __PTG1Interrupt
                  0x000378                  __PTG2Interrupt
                  0x000398                  __PTG3Interrupt
 .isr             0x0003b8          0x4 default_isr
                  0x0003b8                  __DefaultInterrupt
 *(.libc)
 *(.libm)
 *(.libdsp)
 *(.lib*)
 .libpic30_crt_start_mode
                  0x0003bc          0x2 c:/program files/microchip/xc16/v2.10/bin/bin/../../lib\libc99-pic30-elf.a(crt_start_mode_normalep.Meo)
                  0x0003bc                  __crt_start_mode
                  0x0003bc                  __crt_start_mode_normal
 .libm.eqsf2      0x0003be          0x4 c:/program files/microchip/xc16/v2.10/bin/bin/../../lib\libc99-pic30-elf.a(feqltle.EP_o)
                  0x0003be                  ___eqsf2
                  0x0003be                  ___ltsf2
                  0x0003be                  ___lesf2
 .libm.gtsf2      0x0003c2          0x4 c:/program files/microchip/xc16/v2.10/bin/bin/../../lib\libc99-pic30-elf.a(fgtge.EP_o)
                  0x0003c2                  ___gesf2
                  0x0003c2                  ___gtsf2
 .libm.fixunssfsi
                  0x0003c6         0x36 c:/program files/microchip/xc16/v2.10/bin/bin/../../lib\libc99-pic30-elf.a(fixunssfsi.EP_o)
                  0x0003c6                  ___fixunssfsi
 .libm.floatunsisf
                  0x0003fc          0x4 c:/program files/microchip/xc16/v2.10/bin/bin/../../lib\libc99-pic30-elf.a(floatunsisf.EP_o)
                  0x0003fc                  ___floatunsisf
 .libm.funpack    0x000400         0x2a c:/program files/microchip/xc16/v2.10/bin/bin/../../lib\libc99-pic30-elf.a(funpack.EP_o)
                  0x000400                  __funpack
 .libmx           0x00042a        0x1dc c:/program files/microchip/xc16/v2.10/bin/bin/../../lib\libc99-pic30-elf.a(addsf3x.EP_o)
                  0x00042a                  ___subsf3x
                  0x00042a                  ___subsf3
                  0x00043c                  ___addsf3x
                  0x00043c                  ___addsf3
 .libmx           0x000606        0x1be c:/program files/microchip/xc16/v2.10/bin/bin/../../lib\libc99-pic30-elf.a(divsf3x.EP_o)
                  0x000606                  ___divsf3x
                  0x000606                  ___divsf3
                  0x000798                  __sdivf
 .libmx           0x0007c4        0x10c c:/program files/microchip/xc16/v2.10/bin/bin/../../lib\libc99-pic30-elf.a(mulsf3x.EP_o)
                  0x0007c4                  ___mulsf3x
                  0x0007c4                  ___mulsf3
 .libmx           0x0008d0         0x54 c:/program files/microchip/xc16/v2.10/bin/bin/../../lib\libc99-pic30-elf.a(dnrmpackfx.EP_o)
                  0x0008d0                  __dnrmpackf
 .libmx           0x000924         0x5e c:/program files/microchip/xc16/v2.10/bin/bin/../../lib\libc99-pic30-elf.a(unpackdnrmfx.EP_o)
                  0x000924                  __unpackdnrmf
 .libmx           0x000982         0x34 c:/program files/microchip/xc16/v2.10/bin/bin/../../lib\libc99-pic30-elf.a(typefx.EP_o)
                  0x000982                  __typef
 .libmx           0x0009b6         0x12 c:/program files/microchip/xc16/v2.10/bin/bin/../../lib\libc99-pic30-elf.a(propnanfx.EP_o)
                  0x0009b6                  __propnanf
 .libmx           0x0009c8         0xa6 c:/program files/microchip/xc16/v2.10/bin/bin/../../lib\libc99-pic30-elf.a(spackfx.EP_o)
                  0x0009c8                  __spackf
 .libmx           0x000a6e         0x66 c:/program files/microchip/xc16/v2.10/bin/bin/../../lib\libc99-pic30-elf.a(unpackfx.EP_o)
                  0x000a6e                  __unpackf
 .libm.fcompare
                  0x000ad4         0x36 c:/program files/microchip/xc16/v2.10/bin/bin/../../lib\libc99-pic30-elf.a(fcompare.EP_o)
                  0x000ad4                  __fcompare
 .libm.floatundisf
                  0x000b0a         0x5e c:/program files/microchip/xc16/v2.10/bin/bin/../../lib\libc99-pic30-elf.a(floatundisf.EP_o)
                  0x000b0a                  ___floatundisf
 .libm.fpack      0x000b68         0x4c c:/program files/microchip/xc16/v2.10/bin/bin/../../lib\libc99-pic30-elf.a(fpack.EP_o)
                  0x000b68                  __fpack
 .libm.funpack2
                  0x000bb4         0x10 c:/program files/microchip/xc16/v2.10/bin/bin/../../lib\libc99-pic30-elf.a(funpack2.EP_o)
                  0x000bb4                  __funpack2
 .libc.sqrtf      0x000bc4        0x114 c:/program files/microchip/xc16/v2.10/bin/bin/../../lib\libm-elf.a(sqrtf.EP_o)
                  0x000bc4                  _sqrtf

usercode
 *(usercode)

__FBOOT
 *(__FBOOT.sec*)

__FSEC            0x015780          0x2
 *(__FSEC.sec*)
 __FSEC.sec       0x015780          0x2 /CW/_FSEC
                  0x015780                  __FSEC.sec

__FBSLIM
 *(__FBSLIM.sec*)

__FSIGN
 *(__FSIGN.sec*)

__FOSCSEL
 *(__FOSCSEL.sec*)

__FOSC
 *(__FOSC.sec*)

__FWDT
 *(__FWDT.sec*)

__FPOR
 *(__FPOR.sec*)

__FICD
 *(__FICD.sec*)

__FDEVOPT
 *(__FDEVOPT.sec*)

__FALTREG
 *(__FALTREG.sec*)

__FBTSEQ
 *(__FBTSEQ.sec*)

.comment
 *(.comment)

.debug_info       0x000000       0x5e73
 *(.debug_info)
 .debug_info      0x000000        0x5c7 build/default/debug/blinky1.o
 .debug_info      0x0005c7        0x59c build/default/debug/blinky3.o
 .debug_info      0x000b63       0x16e0 build/default/debug/bsp_dspic33ep128gs804.o
 .debug_info      0x002243        0x571 build/default/debug/button2a.o
 .debug_info      0x0027b4        0x52c build/default/debug/button2b.o
 .debug_info      0x002ce0        0x801 build/default/debug/_ext/1564044098/sst_port.o
 .debug_info      0x0034e1        0x7bc build/default/debug/_ext/1445274692/sst.o
 .debug_info      0x003c9d        0x3c6 build/default/debug/main.o
 .debug_info      0x004063       0x1383 build/default/debug/system_dspic33ep128gs804.o
 .debug_info      0x0053e6         0x8d c:/program files/microchip/xc16/v2.10/bin/bin/../../lib\libc99-pic30-elf.a(feqltle.EP_o)
 .debug_info      0x005473         0x8b c:/program files/microchip/xc16/v2.10/bin/bin/../../lib\libc99-pic30-elf.a(fgtge.EP_o)
 .debug_info      0x0054fe         0x90 c:/program files/microchip/xc16/v2.10/bin/bin/../../lib\libc99-pic30-elf.a(fixunssfsi.EP_o)
 .debug_info      0x00558e         0x91 c:/program files/microchip/xc16/v2.10/bin/bin/../../lib\libc99-pic30-elf.a(floatunsisf.EP_o)
 .debug_info      0x00561f         0x8d c:/program files/microchip/xc16/v2.10/bin/bin/../../lib\libc99-pic30-elf.a(funpack.EP_o)
 .debug_info      0x0056ac         0x9d c:/program files/microchip/xc16/v2.10/bin/bin/../../lib\libc99-pic30-elf.a(addsf3x.EP_o)
 .debug_info      0x005749         0x9d c:/program files/microchip/xc16/v2.10/bin/bin/../../lib\libc99-pic30-elf.a(divsf3x.EP_o)
 .debug_info      0x0057e6         0x9d c:/program files/microchip/xc16/v2.10/bin/bin/../../lib\libc99-pic30-elf.a(mulsf3x.EP_o)
 .debug_info      0x005883         0xa0 c:/program files/microchip/xc16/v2.10/bin/bin/../../lib\libc99-pic30-elf.a(dnrmpackfx.EP_o)
 .debug_info      0x005923         0xa2 c:/program files/microchip/xc16/v2.10/bin/bin/../../lib\libc99-pic30-elf.a(unpackdnrmfx.EP_o)
 .debug_info      0x0059c5         0x9c c:/program files/microchip/xc16/v2.10/bin/bin/../../lib\libc99-pic30-elf.a(typefx.EP_o)
 .debug_info      0x005a61         0x9f c:/program files/microchip/xc16/v2.10/bin/bin/../../lib\libc99-pic30-elf.a(propnanfx.EP_o)
 .debug_info      0x005b00         0x9d c:/program files/microchip/xc16/v2.10/bin/bin/../../lib\libc99-pic30-elf.a(spackfx.EP_o)
 .debug_info      0x005b9d         0x9e c:/program files/microchip/xc16/v2.10/bin/bin/../../lib\libc99-pic30-elf.a(unpackfx.EP_o)
 .debug_info      0x005c3b         0x8e c:/program files/microchip/xc16/v2.10/bin/bin/../../lib\libc99-pic30-elf.a(fcompare.EP_o)
 .debug_info      0x005cc9         0x91 c:/program files/microchip/xc16/v2.10/bin/bin/../../lib\libc99-pic30-elf.a(floatundisf.EP_o)
 .debug_info      0x005d5a         0x8b c:/program files/microchip/xc16/v2.10/bin/bin/../../lib\libc99-pic30-elf.a(fpack.EP_o)
 .debug_info      0x005de5         0x8e c:/program files/microchip/xc16/v2.10/bin/bin/../../lib\libc99-pic30-elf.a(funpack2.EP_o)
 *(.gnu.linkonce.wi.*)

.debug_abbrev     0x000000        0xd85
 *(.debug_abbrev)
 .debug_abbrev    0x000000        0x117 build/default/debug/blinky1.o
 .debug_abbrev    0x000117        0x117 build/default/debug/blinky3.o
 .debug_abbrev    0x00022e        0x1fa build/default/debug/bsp_dspic33ep128gs804.o
 .debug_abbrev    0x000428        0x133 build/default/debug/button2a.o
 .debug_abbrev    0x00055b        0x133 build/default/debug/button2b.o
 .debug_abbrev    0x00068e        0x1df build/default/debug/_ext/1564044098/sst_port.o
 .debug_abbrev    0x00086d        0x187 build/default/debug/_ext/1445274692/sst.o
 .debug_abbrev    0x0009f4         0xd4 build/default/debug/main.o
 .debug_abbrev    0x000ac8        0x155 build/default/debug/system_dspic33ep128gs804.o
 .debug_abbrev    0x000c1d         0x14 c:/program files/microchip/xc16/v2.10/bin/bin/../../lib\libc99-pic30-elf.a(feqltle.EP_o)
 .debug_abbrev    0x000c31         0x14 c:/program files/microchip/xc16/v2.10/bin/bin/../../lib\libc99-pic30-elf.a(fgtge.EP_o)
 .debug_abbrev    0x000c45         0x14 c:/program files/microchip/xc16/v2.10/bin/bin/../../lib\libc99-pic30-elf.a(fixunssfsi.EP_o)
 .debug_abbrev    0x000c59         0x14 c:/program files/microchip/xc16/v2.10/bin/bin/../../lib\libc99-pic30-elf.a(floatunsisf.EP_o)
 .debug_abbrev    0x000c6d         0x14 c:/program files/microchip/xc16/v2.10/bin/bin/../../lib\libc99-pic30-elf.a(funpack.EP_o)
 .debug_abbrev    0x000c81         0x14 c:/program files/microchip/xc16/v2.10/bin/bin/../../lib\libc99-pic30-elf.a(addsf3x.EP_o)
 .debug_abbrev    0x000c95         0x14 c:/program files/microchip/xc16/v2.10/bin/bin/../../lib\libc99-pic30-elf.a(divsf3x.EP_o)
 .debug_abbrev    0x000ca9         0x14 c:/program files/microchip/xc16/v2.10/bin/bin/../../lib\libc99-pic30-elf.a(mulsf3x.EP_o)
 .debug_abbrev    0x000cbd         0x14 c:/program files/microchip/xc16/v2.10/bin/bin/../../lib\libc99-pic30-elf.a(dnrmpackfx.EP_o)
 .debug_abbrev    0x000cd1         0x14 c:/program files/microchip/xc16/v2.10/bin/bin/../../lib\libc99-pic30-elf.a(unpackdnrmfx.EP_o)
 .debug_abbrev    0x000ce5         0x14 c:/program files/microchip/xc16/v2.10/bin/bin/../../lib\libc99-pic30-elf.a(typefx.EP_o)
 .debug_abbrev    0x000cf9         0x14 c:/program files/microchip/xc16/v2.10/bin/bin/../../lib\libc99-pic30-elf.a(propnanfx.EP_o)
 .debug_abbrev    0x000d0d         0x14 c:/program files/microchip/xc16/v2.10/bin/bin/../../lib\libc99-pic30-elf.a(spackfx.EP_o)
 .debug_abbrev    0x000d21         0x14 c:/program files/microchip/xc16/v2.10/bin/bin/../../lib\libc99-pic30-elf.a(unpackfx.EP_o)
 .debug_abbrev    0x000d35         0x14 c:/program files/microchip/xc16/v2.10/bin/bin/../../lib\libc99-pic30-elf.a(fcompare.EP_o)
 .debug_abbrev    0x000d49         0x14 c:/program files/microchip/xc16/v2.10/bin/bin/../../lib\libc99-pic30-elf.a(floatundisf.EP_o)
 .debug_abbrev    0x000d5d         0x14 c:/program files/microchip/xc16/v2.10/bin/bin/../../lib\libc99-pic30-elf.a(fpack.EP_o)
 .debug_abbrev    0x000d71         0x14 c:/program files/microchip/xc16/v2.10/bin/bin/../../lib\libc99-pic30-elf.a(funpack2.EP_o)

.debug_line       0x000000       0x1343
 *(.debug_line)
 .debug_line      0x000000         0xf5 build/default/debug/blinky1.o
 .debug_line      0x0000f5         0xd3 build/default/debug/blinky3.o
 .debug_line      0x0001c8        0x207 build/default/debug/bsp_dspic33ep128gs804.o
 .debug_line      0x0003cf         0xfc build/default/debug/button2a.o
 .debug_line      0x0004cb         0xd1 build/default/debug/button2b.o
 .debug_line      0x00059c        0x177 build/default/debug/_ext/1564044098/sst_port.o
 .debug_line      0x000713        0x171 build/default/debug/_ext/1445274692/sst.o
 .debug_line      0x000884         0xbd build/default/debug/main.o
 .debug_line      0x000941        0x17b build/default/debug/system_dspic33ep128gs804.o
 .debug_line      0x000abc         0x37 c:/program files/microchip/xc16/v2.10/bin/bin/../../lib\libc99-pic30-elf.a(feqltle.EP_o)
 .debug_line      0x000af3         0x35 c:/program files/microchip/xc16/v2.10/bin/bin/../../lib\libc99-pic30-elf.a(fgtge.EP_o)
 .debug_line      0x000b28         0x53 c:/program files/microchip/xc16/v2.10/bin/bin/../../lib\libc99-pic30-elf.a(fixunssfsi.EP_o)
 .debug_line      0x000b7b         0x3b c:/program files/microchip/xc16/v2.10/bin/bin/../../lib\libc99-pic30-elf.a(floatunsisf.EP_o)
 .debug_line      0x000bb6         0x4a c:/program files/microchip/xc16/v2.10/bin/bin/../../lib\libc99-pic30-elf.a(funpack.EP_o)
 .debug_line      0x000c00        0x136 c:/program files/microchip/xc16/v2.10/bin/bin/../../lib\libc99-pic30-elf.a(addsf3x.EP_o)
 .debug_line      0x000d36        0x124 c:/program files/microchip/xc16/v2.10/bin/bin/../../lib\libc99-pic30-elf.a(divsf3x.EP_o)
 .debug_line      0x000e5a         0xcc c:/program files/microchip/xc16/v2.10/bin/bin/../../lib\libc99-pic30-elf.a(mulsf3x.EP_o)
 .debug_line      0x000f26         0x72 c:/program files/microchip/xc16/v2.10/bin/bin/../../lib\libc99-pic30-elf.a(dnrmpackfx.EP_o)
 .debug_line      0x000f98         0x7a c:/program files/microchip/xc16/v2.10/bin/bin/../../lib\libc99-pic30-elf.a(unpackdnrmfx.EP_o)
 .debug_line      0x001012         0x5e c:/program files/microchip/xc16/v2.10/bin/bin/../../lib\libc99-pic30-elf.a(typefx.EP_o)
 .debug_line      0x001070         0x51 c:/program files/microchip/xc16/v2.10/bin/bin/../../lib\libc99-pic30-elf.a(propnanfx.EP_o)
 .debug_line      0x0010c1         0x98 c:/program files/microchip/xc16/v2.10/bin/bin/../../lib\libc99-pic30-elf.a(spackfx.EP_o)
 .debug_line      0x001159         0x79 c:/program files/microchip/xc16/v2.10/bin/bin/../../lib\libc99-pic30-elf.a(unpackfx.EP_o)
 .debug_line      0x0011d2         0x1a c:/program files/microchip/xc16/v2.10/bin/bin/../../lib\libc99-pic30-elf.a(errno.EP_o)
 .debug_line      0x0011ec         0x53 c:/program files/microchip/xc16/v2.10/bin/bin/../../lib\libc99-pic30-elf.a(fcompare.EP_o)
 .debug_line      0x00123f         0x6c c:/program files/microchip/xc16/v2.10/bin/bin/../../lib\libc99-pic30-elf.a(floatundisf.EP_o)
 .debug_line      0x0012ab         0x5a c:/program files/microchip/xc16/v2.10/bin/bin/../../lib\libc99-pic30-elf.a(fpack.EP_o)
 .debug_line      0x001305         0x3e c:/program files/microchip/xc16/v2.10/bin/bin/../../lib\libc99-pic30-elf.a(funpack2.EP_o)

.debug_frame      0x000000        0x864
 *(.debug_frame)
 .debug_frame     0x000000         0x7c build/default/debug/blinky1.o
 .debug_frame     0x00007c         0x7c build/default/debug/blinky3.o
 .debug_frame     0x0000f8        0x380 build/default/debug/bsp_dspic33ep128gs804.o
 .debug_frame     0x000478         0x7c build/default/debug/button2a.o
 .debug_frame     0x0004f4         0x7c build/default/debug/button2b.o
 .debug_frame     0x000570         0xfe build/default/debug/_ext/1564044098/sst_port.o
 .debug_frame     0x00066e         0xe4 build/default/debug/_ext/1445274692/sst.o
 .debug_frame     0x000752         0x2e build/default/debug/main.o
 .debug_frame     0x000780         0xe4 build/default/debug/system_dspic33ep128gs804.o

.debug_str        0x000000        0x186
 *(.debug_str)
 .debug_str       0x000000         0x15 build/default/debug/blinky1.o
 .debug_str       0x000015         0x15 build/default/debug/blinky3.o
 .debug_str       0x00002a         0x64 build/default/debug/bsp_dspic33ep128gs804.o
 .debug_str       0x00008e         0x20 build/default/debug/button2a.o
 .debug_str       0x0000ae         0x14 build/default/debug/button2b.o
 .debug_str       0x0000c2         0x24 build/default/debug/_ext/1564044098/sst_port.o
 .debug_str       0x0000e6         0x42 build/default/debug/_ext/1445274692/sst.o
 .debug_str       0x000128         0x37 build/default/debug/main.o
 .debug_str       0x00015f         0x27 build/default/debug/system_dspic33ep128gs804.o

.debug_loc
 *(.debug_loc)

.debug_macinfo
 *(.debug_macinfo)

.debug_pubnames
                  0x000000        0x4c5
 *(.debug_pubnames)
 .debug_pubnames
                  0x000000         0x39 build/default/debug/blinky1.o
 .debug_pubnames
                  0x000039         0x39 build/default/debug/blinky3.o
 .debug_pubnames
                  0x000072        0x1ad build/default/debug/bsp_dspic33ep128gs804.o
 .debug_pubnames
                  0x00021f         0x3b build/default/debug/button2a.o
 .debug_pubnames
                  0x00025a         0x3b build/default/debug/button2b.o
 .debug_pubnames
                  0x000295         0xa5 build/default/debug/_ext/1564044098/sst_port.o
 .debug_pubnames
                  0x00033a         0xaf build/default/debug/_ext/1445274692/sst.o
 .debug_pubnames
                  0x0003e9         0x1b build/default/debug/main.o
 .debug_pubnames
                  0x000404         0xc1 build/default/debug/system_dspic33ep128gs804.o

.debug_ranges
 *(.debug_ranges)

.debug_aranges    0x000000        0x318
 *(.debug_aranges)
 .debug_aranges
                  0x000000         0x18 build/default/debug/blinky1.o
 .debug_aranges
                  0x000018         0x18 build/default/debug/blinky3.o
 .debug_aranges
                  0x000030         0x18 build/default/debug/bsp_dspic33ep128gs804.o
 .debug_aranges
                  0x000048         0x18 build/default/debug/button2a.o
 .debug_aranges
                  0x000060         0x18 build/default/debug/button2b.o
 .debug_aranges
                  0x000078         0x18 build/default/debug/_ext/1564044098/sst_port.o
 .debug_aranges
                  0x000090         0x18 build/default/debug/_ext/1445274692/sst.o
 .debug_aranges
                  0x0000a8         0x18 build/default/debug/main.o
 .debug_aranges
                  0x0000c0         0x18 build/default/debug/system_dspic33ep128gs804.o
 .debug_aranges
                  0x0000d8         0x20 c:/program files/microchip/xc16/v2.10/bin/bin/../../lib\libc99-pic30-elf.a(feqltle.EP_o)
 .debug_aranges
                  0x0000f8         0x20 c:/program files/microchip/xc16/v2.10/bin/bin/../../lib\libc99-pic30-elf.a(fgtge.EP_o)
 .debug_aranges
                  0x000118         0x20 c:/program files/microchip/xc16/v2.10/bin/bin/../../lib\libc99-pic30-elf.a(fixunssfsi.EP_o)
 .debug_aranges
                  0x000138         0x20 c:/program files/microchip/xc16/v2.10/bin/bin/../../lib\libc99-pic30-elf.a(floatunsisf.EP_o)
 .debug_aranges
                  0x000158         0x20 c:/program files/microchip/xc16/v2.10/bin/bin/../../lib\libc99-pic30-elf.a(funpack.EP_o)
 .debug_aranges
                  0x000178         0x20 c:/program files/microchip/xc16/v2.10/bin/bin/../../lib\libc99-pic30-elf.a(addsf3x.EP_o)
 .debug_aranges
                  0x000198         0x20 c:/program files/microchip/xc16/v2.10/bin/bin/../../lib\libc99-pic30-elf.a(divsf3x.EP_o)
 .debug_aranges
                  0x0001b8         0x20 c:/program files/microchip/xc16/v2.10/bin/bin/../../lib\libc99-pic30-elf.a(mulsf3x.EP_o)
 .debug_aranges
                  0x0001d8         0x20 c:/program files/microchip/xc16/v2.10/bin/bin/../../lib\libc99-pic30-elf.a(dnrmpackfx.EP_o)
 .debug_aranges
                  0x0001f8         0x20 c:/program files/microchip/xc16/v2.10/bin/bin/../../lib\libc99-pic30-elf.a(unpackdnrmfx.EP_o)
 .debug_aranges
                  0x000218         0x20 c:/program files/microchip/xc16/v2.10/bin/bin/../../lib\libc99-pic30-elf.a(typefx.EP_o)
 .debug_aranges
                  0x000238         0x20 c:/program files/microchip/xc16/v2.10/bin/bin/../../lib\libc99-pic30-elf.a(propnanfx.EP_o)
 .debug_aranges
                  0x000258         0x20 c:/program files/microchip/xc16/v2.10/bin/bin/../../lib\libc99-pic30-elf.a(spackfx.EP_o)
 .debug_aranges
                  0x000278         0x20 c:/program files/microchip/xc16/v2.10/bin/bin/../../lib\libc99-pic30-elf.a(unpackfx.EP_o)
 .debug_aranges
                  0x000298         0x20 c:/program files/microchip/xc16/v2.10/bin/bin/../../lib\libc99-pic30-elf.a(fcompare.EP_o)
 .debug_aranges
                  0x0002b8         0x20 c:/program files/microchip/xc16/v2.10/bin/bin/../../lib\libc99-pic30-elf.a(floatundisf.EP_o)
 .debug_aranges
                  0x0002d8         0x20 c:/program files/microchip/xc16/v2.10/bin/bin/../../lib\libc99-pic30-elf.a(fpack.EP_o)
 .debug_aranges
                  0x0002f8         0x20 c:/program files/microchip/xc16/v2.10/bin/bin/../../lib\libc99-pic30-elf.a(funpack2.EP_o)
                    0x0000                  WREG0 = 0x0
                    0x0000                  _WREG0 = 0x0
                    0x0002                  WREG1 = 0x2
                    0x0002                  _WREG1 = 0x2
                    0x0004                  WREG2 = 0x4
                    0x0004                  _WREG2 = 0x4
                    0x0006                  WREG3 = 0x6
                    0x0006                  _WREG3 = 0x6
                    0x0008                  WREG4 = 0x8
                    0x0008                  _WREG4 = 0x8
                    0x000a                  WREG5 = 0xa
                    0x000a                  _WREG5 = 0xa
                    0x000c                  WREG6 = 0xc
                    0x000c                  _WREG6 = 0xc
                    0x000e                  WREG7 = 0xe
                    0x000e                  _WREG7 = 0xe
                    0x0010                  WREG8 = 0x10
                    0x0010                  _WREG8 = 0x10
                    0x0012                  WREG9 = 0x12
                    0x0012                  _WREG9 = 0x12
                    0x0014                  WREG10 = 0x14
                    0x0014                  _WREG10 = 0x14
                    0x0016                  WREG11 = 0x16
                    0x0016                  _WREG11 = 0x16
                    0x0018                  WREG12 = 0x18
                    0x0018                  _WREG12 = 0x18
                    0x001a                  WREG13 = 0x1a
                    0x001a                  _WREG13 = 0x1a
                    0x001c                  WREG14 = 0x1c
                    0x001c                  _WREG14 = 0x1c
                    0x001e                  WREG15 = 0x1e
                    0x001e                  _WREG15 = 0x1e
                    0x0020                  SPLIM = 0x20
                    0x0020                  _SPLIM = 0x20
                    0x0022                  ACCAL = 0x22
                    0x0022                  _ACCAL = 0x22
                    0x0024                  ACCAH = 0x24
                    0x0024                  _ACCAH = 0x24
                    0x0026                  ACCAU = 0x26
                    0x0026                  _ACCAU = 0x26
                    0x0028                  ACCBL = 0x28
                    0x0028                  _ACCBL = 0x28
                    0x002a                  ACCBH = 0x2a
                    0x002a                  _ACCBH = 0x2a
                    0x002c                  ACCBU = 0x2c
                    0x002c                  _ACCBU = 0x2c
                    0x002e                  PCL = 0x2e
                    0x002e                  _PCL = 0x2e
                    0x0030                  PCH = 0x30
                    0x0030                  _PCH = 0x30
                    0x0032                  DSRPAG = 0x32
                    0x0032                  _DSRPAG = 0x32
                    0x0032                  _DSRPAGbits = 0x32
                    0x0034                  DSWPAG = 0x34
                    0x0034                  _DSWPAG = 0x34
                    0x0034                  _DSWPAGbits = 0x34
                    0x0036                  RCOUNT = 0x36
                    0x0036                  _RCOUNT = 0x36
                    0x0038                  DCOUNT = 0x38
                    0x0038                  _DCOUNT = 0x38
                    0x003a                  DOSTARTL = 0x3a
                    0x003a                  _DOSTARTL = 0x3a
                    0x003c                  DOSTARTH = 0x3c
                    0x003c                  _DOSTARTH = 0x3c
                    0x003e                  DOENDL = 0x3e
                    0x003e                  _DOENDL = 0x3e
                    0x0040                  DOENDH = 0x40
                    0x0040                  _DOENDH = 0x40
                    0x0042                  SR = 0x42
                    0x0042                  _SR = 0x42
                    0x0042                  _SRbits = 0x42
                    0x0044                  CORCON = 0x44
                    0x0044                  _CORCON = 0x44
                    0x0044                  _CORCONbits = 0x44
                    0x0046                  MODCON = 0x46
                    0x0046                  _MODCON = 0x46
                    0x0046                  _MODCONbits = 0x46
                    0x0048                  XMODSRT = 0x48
                    0x0048                  _XMODSRT = 0x48
                    0x004a                  XMODEND = 0x4a
                    0x004a                  _XMODEND = 0x4a
                    0x004c                  YMODSRT = 0x4c
                    0x004c                  _YMODSRT = 0x4c
                    0x004e                  YMODEND = 0x4e
                    0x004e                  _YMODEND = 0x4e
                    0x0050                  XBREV = 0x50
                    0x0050                  _XBREV = 0x50
                    0x0050                  _XBREVbits = 0x50
                    0x0052                  DISICNT = 0x52
                    0x0052                  _DISICNT = 0x52
                    0x0054                  TBLPAG = 0x54
                    0x0054                  _TBLPAG = 0x54
                    0x0054                  _TBLPAGbits = 0x54
                    0x005a                  CTXTSTAT = 0x5a
                    0x005a                  _CTXTSTAT = 0x5a
                    0x005a                  _CTXTSTATbits = 0x5a
                    0x0100                  TMR1 = 0x100
                    0x0100                  _TMR1 = 0x100
                    0x0102                  PR1 = 0x102
                    0x0102                  _PR1 = 0x102
                    0x0104                  T1CON = 0x104
                    0x0104                  _T1CON = 0x104
                    0x0104                  _T1CONbits = 0x104
                    0x0106                  TMR2 = 0x106
                    0x0106                  _TMR2 = 0x106
                    0x0108                  TMR3HLD = 0x108
                    0x0108                  _TMR3HLD = 0x108
                    0x010a                  TMR3 = 0x10a
                    0x010a                  _TMR3 = 0x10a
                    0x010c                  PR2 = 0x10c
                    0x010c                  _PR2 = 0x10c
                    0x010e                  PR3 = 0x10e
                    0x010e                  _PR3 = 0x10e
                    0x0110                  T2CON = 0x110
                    0x0110                  _T2CON = 0x110
                    0x0110                  _T2CONbits = 0x110
                    0x0112                  T3CON = 0x112
                    0x0112                  _T3CON = 0x112
                    0x0112                  _T3CONbits = 0x112
                    0x0114                  TMR4 = 0x114
                    0x0114                  _TMR4 = 0x114
                    0x0116                  TMR5HLD = 0x116
                    0x0116                  _TMR5HLD = 0x116
                    0x0118                  TMR5 = 0x118
                    0x0118                  _TMR5 = 0x118
                    0x011a                  PR4 = 0x11a
                    0x011a                  _PR4 = 0x11a
                    0x011c                  PR5 = 0x11c
                    0x011c                  _PR5 = 0x11c
                    0x011e                  T4CON = 0x11e
                    0x011e                  _T4CON = 0x11e
                    0x011e                  _T4CONbits = 0x11e
                    0x0120                  T5CON = 0x120
                    0x0120                  _T5CON = 0x120
                    0x0120                  _T5CONbits = 0x120
                    0x0140                  IC1CON1 = 0x140
                    0x0140                  _IC1CON1 = 0x140
                    0x0140                  _IC1CON1bits = 0x140
                    0x0142                  IC1CON2 = 0x142
                    0x0142                  _IC1CON2 = 0x142
                    0x0142                  _IC1CON2bits = 0x142
                    0x0144                  IC1BUF = 0x144
                    0x0144                  _IC1BUF = 0x144
                    0x0146                  IC1TMR = 0x146
                    0x0146                  _IC1TMR = 0x146
                    0x0148                  IC2CON1 = 0x148
                    0x0148                  _IC2CON1 = 0x148
                    0x0148                  _IC2CON1bits = 0x148
                    0x014a                  IC2CON2 = 0x14a
                    0x014a                  _IC2CON2 = 0x14a
                    0x014a                  _IC2CON2bits = 0x14a
                    0x014c                  IC2BUF = 0x14c
                    0x014c                  _IC2BUF = 0x14c
                    0x014e                  IC2TMR = 0x14e
                    0x014e                  _IC2TMR = 0x14e
                    0x0150                  IC3CON1 = 0x150
                    0x0150                  _IC3CON1 = 0x150
                    0x0150                  _IC3CON1bits = 0x150
                    0x0152                  IC3CON2 = 0x152
                    0x0152                  _IC3CON2 = 0x152
                    0x0152                  _IC3CON2bits = 0x152
                    0x0154                  IC3BUF = 0x154
                    0x0154                  _IC3BUF = 0x154
                    0x0156                  IC3TMR = 0x156
                    0x0156                  _IC3TMR = 0x156
                    0x0158                  IC4CON1 = 0x158
                    0x0158                  _IC4CON1 = 0x158
                    0x0158                  _IC4CON1bits = 0x158
                    0x015a                  IC4CON2 = 0x15a
                    0x015a                  _IC4CON2 = 0x15a
                    0x015a                  _IC4CON2bits = 0x15a
                    0x015c                  IC4BUF = 0x15c
                    0x015c                  _IC4BUF = 0x15c
                    0x015e                  IC4TMR = 0x15e
                    0x015e                  _IC4TMR = 0x15e
                    0x0200                  I2C1CON1 = 0x200
                    0x0200                  _I2C1CON1 = 0x200
                    0x0200                  _I2C1CON1bits = 0x200
                    0x0200                  I2C1CONL = 0x200
                    0x0200                  _I2C1CONL = 0x200
                    0x0200                  _I2C1CONLbits = 0x200
                    0x0202                  I2C1CON2 = 0x202
                    0x0202                  _I2C1CON2 = 0x202
                    0x0202                  _I2C1CON2bits = 0x202
                    0x0202                  I2C1CONH = 0x202
                    0x0202                  _I2C1CONH = 0x202
                    0x0202                  _I2C1CONHbits = 0x202
                    0x0204                  I2C1STAT = 0x204
                    0x0204                  _I2C1STAT = 0x204
                    0x0204                  _I2C1STATbits = 0x204
                    0x0206                  I2C1ADD = 0x206
                    0x0206                  _I2C1ADD = 0x206
                    0x0206                  _I2C1ADDbits = 0x206
                    0x0208                  I2C1MSK = 0x208
                    0x0208                  _I2C1MSK = 0x208
                    0x0208                  _I2C1MSKbits = 0x208
                    0x020a                  I2C1BRG = 0x20a
                    0x020a                  _I2C1BRG = 0x20a
                    0x020c                  I2C1TRN = 0x20c
                    0x020c                  _I2C1TRN = 0x20c
                    0x020c                  _I2C1TRNbits = 0x20c
                    0x020e                  I2C1RCV = 0x20e
                    0x020e                  _I2C1RCV = 0x20e
                    0x020e                  _I2C1RCVbits = 0x20e
                    0x0210                  I2C2CON1 = 0x210
                    0x0210                  _I2C2CON1 = 0x210
                    0x0210                  _I2C2CON1bits = 0x210
                    0x0210                  I2C2CONL = 0x210
                    0x0210                  _I2C2CONL = 0x210
                    0x0210                  _I2C2CONLbits = 0x210
                    0x0212                  I2C2CON2 = 0x212
                    0x0212                  _I2C2CON2 = 0x212
                    0x0212                  _I2C2CON2bits = 0x212
                    0x0212                  I2C2CONH = 0x212
                    0x0212                  _I2C2CONH = 0x212
                    0x0212                  _I2C2CONHbits = 0x212
                    0x0214                  I2C2STAT = 0x214
                    0x0214                  _I2C2STAT = 0x214
                    0x0214                  _I2C2STATbits = 0x214
                    0x0216                  I2C2ADD = 0x216
                    0x0216                  _I2C2ADD = 0x216
                    0x0216                  _I2C2ADDbits = 0x216
                    0x0218                  I2C2MSK = 0x218
                    0x0218                  _I2C2MSK = 0x218
                    0x0218                  _I2C2MSKbits = 0x218
                    0x021a                  I2C2BRG = 0x21a
                    0x021a                  _I2C2BRG = 0x21a
                    0x021c                  I2C2TRN = 0x21c
                    0x021c                  _I2C2TRN = 0x21c
                    0x021c                  _I2C2TRNbits = 0x21c
                    0x021e                  I2C2RCV = 0x21e
                    0x021e                  _I2C2RCV = 0x21e
                    0x021e                  _I2C2RCVbits = 0x21e
                    0x0220                  U1MODE = 0x220
                    0x0220                  _U1MODE = 0x220
                    0x0220                  _U1MODEbits = 0x220
                    0x0222                  U1STA = 0x222
                    0x0222                  _U1STA = 0x222
                    0x0222                  _U1STAbits = 0x222
                    0x0224                  U1TXREG = 0x224
                    0x0224                  _U1TXREG = 0x224
                    0x0226                  U1RXREG = 0x226
                    0x0226                  _U1RXREG = 0x226
                    0x0228                  U1BRG = 0x228
                    0x0228                  _U1BRG = 0x228
                    0x0230                  U2MODE = 0x230
                    0x0230                  _U2MODE = 0x230
                    0x0230                  _U2MODEbits = 0x230
                    0x0232                  U2STA = 0x232
                    0x0232                  _U2STA = 0x232
                    0x0232                  _U2STAbits = 0x232
                    0x0234                  U2TXREG = 0x234
                    0x0234                  _U2TXREG = 0x234
                    0x0236                  U2RXREG = 0x236
                    0x0236                  _U2RXREG = 0x236
                    0x0238                  U2BRG = 0x238
                    0x0238                  _U2BRG = 0x238
                    0x0240                  SPI1CON1 = 0x240
                    0x0240                  _SPI1CON1 = 0x240
                    0x0240                  _SPI1CON1bits = 0x240
                    0x0240                  SPI1CON1L = 0x240
                    0x0240                  _SPI1CON1L = 0x240
                    0x0240                  _SPI1CON1Lbits = 0x240
                    0x0242                  SPI1CON1H = 0x242
                    0x0242                  _SPI1CON1H = 0x242
                    0x0242                  _SPI1CON1Hbits = 0x242
                    0x0242                  SPI1CON2 = 0x242
                    0x0242                  _SPI1CON2 = 0x242
                    0x0242                  _SPI1CON2bits = 0x242
                    0x0244                  SPI1CON2L = 0x244
                    0x0244                  _SPI1CON2L = 0x244
                    0x0244                  _SPI1CON2Lbits = 0x244
                    0x0244                  SPI1CON3 = 0x244
                    0x0244                  _SPI1CON3 = 0x244
                    0x0244                  _SPI1CON3bits = 0x244
                    0x0248                  SPI1STATL = 0x248
                    0x0248                  _SPI1STATL = 0x248
                    0x0248                  _SPI1STATLbits = 0x248
                    0x024a                  SPI1STATH = 0x24a
                    0x024a                  _SPI1STATH = 0x24a
                    0x024a                  _SPI1STATHbits = 0x24a
                    0x024c                  SPI1BUFL = 0x24c
                    0x024c                  _SPI1BUFL = 0x24c
                    0x024c                  _SPI1BUFLbits = 0x24c
                    0x024e                  SPI1BUFH = 0x24e
                    0x024e                  _SPI1BUFH = 0x24e
                    0x024e                  _SPI1BUFHbits = 0x24e
                    0x0250                  SPI1BRGL = 0x250
                    0x0250                  _SPI1BRGL = 0x250
                    0x0250                  _SPI1BRGLbits = 0x250
                    0x0252                  SPI1BRGH = 0x252
                    0x0252                  _SPI1BRGH = 0x252
                    0x0254                  SPI1IMSK1 = 0x254
                    0x0254                  _SPI1IMSK1 = 0x254
                    0x0254                  _SPI1IMSK1bits = 0x254
                    0x0254                  SPI1IMSKL = 0x254
                    0x0254                  _SPI1IMSKL = 0x254
                    0x0254                  _SPI1IMSKLbits = 0x254
                    0x0256                  SPI1IMSK2 = 0x256
                    0x0256                  _SPI1IMSK2 = 0x256
                    0x0256                  _SPI1IMSK2bits = 0x256
                    0x0256                  SPI1IMSKH = 0x256
                    0x0256                  _SPI1IMSKH = 0x256
                    0x0256                  _SPI1IMSKHbits = 0x256
                    0x0258                  SPI1URDTL = 0x258
                    0x0258                  _SPI1URDTL = 0x258
                    0x0258                  _SPI1URDTLbits = 0x258
                    0x025a                  SPI1URDTH = 0x25a
                    0x025a                  _SPI1URDTH = 0x25a
                    0x025a                  _SPI1URDTHbits = 0x25a
                    0x0260                  SPI2CON1 = 0x260
                    0x0260                  _SPI2CON1 = 0x260
                    0x0260                  _SPI2CON1bits = 0x260
                    0x0260                  SPI2CON1L = 0x260
                    0x0260                  _SPI2CON1L = 0x260
                    0x0260                  _SPI2CON1Lbits = 0x260
                    0x0262                  SPI2CON1H = 0x262
                    0x0262                  _SPI2CON1H = 0x262
                    0x0262                  _SPI2CON1Hbits = 0x262
                    0x0262                  SPI2CON2 = 0x262
                    0x0262                  _SPI2CON2 = 0x262
                    0x0262                  _SPI2CON2bits = 0x262
                    0x0264                  SPI2CON2L = 0x264
                    0x0264                  _SPI2CON2L = 0x264
                    0x0264                  _SPI2CON2Lbits = 0x264
                    0x0264                  SPI2CON3 = 0x264
                    0x0264                  _SPI2CON3 = 0x264
                    0x0264                  _SPI2CON3bits = 0x264
                    0x0266                  SPI2CON2H = 0x266
                    0x0266                  _SPI2CON2H = 0x266
                    0x0266                  SPI2CON4 = 0x266
                    0x0266                  _SPI2CON4 = 0x266
                    0x0268                  SPI2STATL = 0x268
                    0x0268                  _SPI2STATL = 0x268
                    0x0268                  _SPI2STATLbits = 0x268
                    0x026a                  SPI2STATH = 0x26a
                    0x026a                  _SPI2STATH = 0x26a
                    0x026a                  _SPI2STATHbits = 0x26a
                    0x026c                  SPI2BUFL = 0x26c
                    0x026c                  _SPI2BUFL = 0x26c
                    0x026c                  _SPI2BUFLbits = 0x26c
                    0x026e                  SPI2BUFH = 0x26e
                    0x026e                  _SPI2BUFH = 0x26e
                    0x026e                  _SPI2BUFHbits = 0x26e
                    0x0270                  SPI2BRGL = 0x270
                    0x0270                  _SPI2BRGL = 0x270
                    0x0270                  _SPI2BRGLbits = 0x270
                    0x0272                  SPI2BRGH = 0x272
                    0x0272                  _SPI2BRGH = 0x272
                    0x0274                  SPI2IMSK1 = 0x274
                    0x0274                  _SPI2IMSK1 = 0x274
                    0x0274                  _SPI2IMSK1bits = 0x274
                    0x0274                  SPI2IMSKL = 0x274
                    0x0274                  _SPI2IMSKL = 0x274
                    0x0274                  _SPI2IMSKLbits = 0x274
                    0x0276                  SPI2IMSK2 = 0x276
                    0x0276                  _SPI2IMSK2 = 0x276
                    0x0276                  _SPI2IMSK2bits = 0x276
                    0x0276                  SPI2IMSKH = 0x276
                    0x0276                  _SPI2IMSKH = 0x276
                    0x0276                  _SPI2IMSKHbits = 0x276
                    0x0278                  SPI2URDTL = 0x278
                    0x0278                  _SPI2URDTL = 0x278
                    0x0278                  _SPI2URDTLbits = 0x278
                    0x027a                  SPI2URDTH = 0x27a
                    0x027a                  _SPI2URDTH = 0x27a
                    0x027a                  _SPI2URDTHbits = 0x27a
                    0x0300                  ADCON1L = 0x300
                    0x0300                  _ADCON1L = 0x300
                    0x0300                  _ADCON1Lbits = 0x300
                    0x0302                  ADCON1H = 0x302
                    0x0302                  _ADCON1H = 0x302
                    0x0302                  _ADCON1Hbits = 0x302
                    0x0304                  ADCON2L = 0x304
                    0x0304                  _ADCON2L = 0x304
                    0x0304                  _ADCON2Lbits = 0x304
                    0x0306                  ADCON2H = 0x306
                    0x0306                  _ADCON2H = 0x306
                    0x0306                  _ADCON2Hbits = 0x306
                    0x0308                  ADCON3L = 0x308
                    0x0308                  _ADCON3L = 0x308
                    0x0308                  _ADCON3Lbits = 0x308
                    0x030a                  ADCON3H = 0x30a
                    0x030a                  _ADCON3H = 0x30a
                    0x030a                  _ADCON3Hbits = 0x30a
                    0x030c                  ADCON4L = 0x30c
                    0x030c                  _ADCON4L = 0x30c
                    0x030c                  _ADCON4Lbits = 0x30c
                    0x030e                  ADCON4H = 0x30e
                    0x030e                  _ADCON4H = 0x30e
                    0x030e                  _ADCON4Hbits = 0x30e
                    0x0310                  ADMOD0L = 0x310
                    0x0310                  _ADMOD0L = 0x310
                    0x0310                  _ADMOD0Lbits = 0x310
                    0x0312                  ADMOD0H = 0x312
                    0x0312                  _ADMOD0H = 0x312
                    0x0312                  _ADMOD0Hbits = 0x312
                    0x0314                  ADMOD1L = 0x314
                    0x0314                  _ADMOD1L = 0x314
                    0x0314                  _ADMOD1Lbits = 0x314
                    0x0320                  ADIEL = 0x320
                    0x0320                  _ADIEL = 0x320
                    0x0320                  _ADIELbits = 0x320
                    0x0322                  ADIEH = 0x322
                    0x0322                  _ADIEH = 0x322
                    0x0322                  _ADIEHbits = 0x322
                    0x0328                  ADCSSL = 0x328
                    0x0328                  _ADCSSL = 0x328
                    0x0328                  _ADCSSLbits = 0x328
                    0x032a                  ADCSSH = 0x32a
                    0x032a                  _ADCSSH = 0x32a
                    0x032a                  _ADCSSHbits = 0x32a
                    0x0330                  ADSTATL = 0x330
                    0x0330                  _ADSTATL = 0x330
                    0x0330                  _ADSTATLbits = 0x330
                    0x0332                  ADSTATH = 0x332
                    0x0332                  _ADSTATH = 0x332
                    0x0332                  _ADSTATHbits = 0x332
                    0x0338                  ADCMP0ENL = 0x338
                    0x0338                  _ADCMP0ENL = 0x338
                    0x0338                  _ADCMP0ENLbits = 0x338
                    0x033a                  ADCMP0ENH = 0x33a
                    0x033a                  _ADCMP0ENH = 0x33a
                    0x033a                  _ADCMP0ENHbits = 0x33a
                    0x033c                  ADCMP0LO = 0x33c
                    0x033c                  _ADCMP0LO = 0x33c
                    0x033e                  ADCMP0HI = 0x33e
                    0x033e                  _ADCMP0HI = 0x33e
                    0x0340                  ADCMP1ENL = 0x340
                    0x0340                  _ADCMP1ENL = 0x340
                    0x0340                  _ADCMP1ENLbits = 0x340
                    0x0342                  ADCMP1ENH = 0x342
                    0x0342                  _ADCMP1ENH = 0x342
                    0x0342                  _ADCMP1ENHbits = 0x342
                    0x0344                  ADCMP1LO = 0x344
                    0x0344                  _ADCMP1LO = 0x344
                    0x0346                  ADCMP1HI = 0x346
                    0x0346                  _ADCMP1HI = 0x346
                    0x0368                  ADFL0DAT = 0x368
                    0x0368                  _ADFL0DAT = 0x368
                    0x036a                  ADFL0CON = 0x36a
                    0x036a                  _ADFL0CON = 0x36a
                    0x036a                  _ADFL0CONbits = 0x36a
                    0x036c                  ADFL1DAT = 0x36c
                    0x036c                  _ADFL1DAT = 0x36c
                    0x036e                  ADFL1CON = 0x36e
                    0x036e                  _ADFL1CON = 0x36e
                    0x036e                  _ADFL1CONbits = 0x36e
                    0x0380                  ADTRIG0L = 0x380
                    0x0380                  _ADTRIG0L = 0x380
                    0x0380                  _ADTRIG0Lbits = 0x380
                    0x0382                  ADTRIG0H = 0x382
                    0x0382                  _ADTRIG0H = 0x382
                    0x0382                  _ADTRIG0Hbits = 0x382
                    0x0384                  ADTRIG1L = 0x384
                    0x0384                  _ADTRIG1L = 0x384
                    0x0384                  _ADTRIG1Lbits = 0x384
                    0x0386                  ADTRIG1H = 0x386
                    0x0386                  _ADTRIG1H = 0x386
                    0x0386                  _ADTRIG1Hbits = 0x386
                    0x0388                  ADTRIG2L = 0x388
                    0x0388                  _ADTRIG2L = 0x388
                    0x0388                  _ADTRIG2Lbits = 0x388
                    0x038a                  ADTRIG2H = 0x38a
                    0x038a                  _ADTRIG2H = 0x38a
                    0x038a                  _ADTRIG2Hbits = 0x38a
                    0x038c                  ADTRIG3L = 0x38c
                    0x038c                  _ADTRIG3L = 0x38c
                    0x038e                  ADTRIG3H = 0x38e
                    0x038e                  _ADTRIG3H = 0x38e
                    0x038e                  _ADTRIG3Hbits = 0x38e
                    0x0390                  ADTRIG4L = 0x390
                    0x0390                  _ADTRIG4L = 0x390
                    0x0390                  _ADTRIG4Lbits = 0x390
                    0x0392                  ADTRIG4H = 0x392
                    0x0392                  _ADTRIG4H = 0x392
                    0x0392                  _ADTRIG4Hbits = 0x392
                    0x0394                  ADTRIG5L = 0x394
                    0x0394                  _ADTRIG5L = 0x394
                    0x0394                  _ADTRIG5Lbits = 0x394
                    0x03a0                  ADCMP0CON = 0x3a0
                    0x03a0                  _ADCMP0CON = 0x3a0
                    0x03a0                  _ADCMP0CONbits = 0x3a0
                    0x03a4                  ADCMP1CON = 0x3a4
                    0x03a4                  _ADCMP1CON = 0x3a4
                    0x03a4                  _ADCMP1CONbits = 0x3a4
                    0x03c0                  ADBASE = 0x3c0
                    0x03c0                  _ADBASE = 0x3c0
                    0x03c0                  _ADBASEbits = 0x3c0
                    0x03d0                  ADLVLTRGL = 0x3d0
                    0x03d0                  _ADLVLTRGL = 0x3d0
                    0x03d0                  _ADLVLTRGLbits = 0x3d0
                    0x03d2                  ADLVLTRGH = 0x3d2
                    0x03d2                  _ADLVLTRGH = 0x3d2
                    0x03d2                  _ADLVLTRGHbits = 0x3d2
                    0x03d4                  ADCORE0L = 0x3d4
                    0x03d4                  _ADCORE0L = 0x3d4
                    0x03d4                  _ADCORE0Lbits = 0x3d4
                    0x03d6                  ADCORE0H = 0x3d6
                    0x03d6                  _ADCORE0H = 0x3d6
                    0x03d6                  _ADCORE0Hbits = 0x3d6
                    0x03d8                  ADCORE1L = 0x3d8
                    0x03d8                  _ADCORE1L = 0x3d8
                    0x03d8                  _ADCORE1Lbits = 0x3d8
                    0x03da                  ADCORE1H = 0x3da
                    0x03da                  _ADCORE1H = 0x3da
                    0x03da                  _ADCORE1Hbits = 0x3da
                    0x03dc                  ADCORE2L = 0x3dc
                    0x03dc                  _ADCORE2L = 0x3dc
                    0x03dc                  _ADCORE2Lbits = 0x3dc
                    0x03de                  ADCORE2H = 0x3de
                    0x03de                  _ADCORE2H = 0x3de
                    0x03de                  _ADCORE2Hbits = 0x3de
                    0x03e0                  ADCORE3L = 0x3e0
                    0x03e0                  _ADCORE3L = 0x3e0
                    0x03e0                  _ADCORE3Lbits = 0x3e0
                    0x03e2                  ADCORE3H = 0x3e2
                    0x03e2                  _ADCORE3H = 0x3e2
                    0x03e2                  _ADCORE3Hbits = 0x3e2
                    0x03f0                  ADEIEL = 0x3f0
                    0x03f0                  _ADEIEL = 0x3f0
                    0x03f0                  _ADEIELbits = 0x3f0
                    0x03f2                  ADEIEH = 0x3f2
                    0x03f2                  _ADEIEH = 0x3f2
                    0x03f2                  _ADEIEHbits = 0x3f2
                    0x03f8                  ADEISTATL = 0x3f8
                    0x03f8                  _ADEISTATL = 0x3f8
                    0x03f8                  _ADEISTATLbits = 0x3f8
                    0x03fa                  ADEISTATH = 0x3fa
                    0x03fa                  _ADEISTATH = 0x3fa
                    0x03fa                  _ADEISTATHbits = 0x3fa
                    0x0400                  ADCON5L = 0x400
                    0x0400                  _ADCON5L = 0x400
                    0x0400                  _ADCON5Lbits = 0x400
                    0x0402                  ADCON5H = 0x402
                    0x0402                  _ADCON5H = 0x402
                    0x0402                  _ADCON5Hbits = 0x402
                    0x0404                  ADCAL0L = 0x404
                    0x0404                  _ADCAL0L = 0x404
                    0x0404                  _ADCAL0Lbits = 0x404
                    0x0406                  ADCAL0H = 0x406
                    0x0406                  _ADCAL0H = 0x406
                    0x0406                  _ADCAL0Hbits = 0x406
                    0x040a                  ADCAL1H = 0x40a
                    0x040a                  _ADCAL1H = 0x40a
                    0x040a                  _ADCAL1Hbits = 0x40a
                    0x040c                  ADCBUF0 = 0x40c
                    0x040c                  _ADCBUF0 = 0x40c
                    0x040e                  ADCBUF1 = 0x40e
                    0x040e                  _ADCBUF1 = 0x40e
                    0x0410                  ADCBUF2 = 0x410
                    0x0410                  _ADCBUF2 = 0x410
                    0x0412                  ADCBUF3 = 0x412
                    0x0412                  _ADCBUF3 = 0x412
                    0x0414                  ADCBUF4 = 0x414
                    0x0414                  _ADCBUF4 = 0x414
                    0x0418                  ADCBUF6 = 0x418
                    0x0418                  _ADCBUF6 = 0x418
                    0x041a                  ADCBUF7 = 0x41a
                    0x041a                  _ADCBUF7 = 0x41a
                    0x041c                  ADCBUF8 = 0x41c
                    0x041c                  _ADCBUF8 = 0x41c
                    0x041e                  ADCBUF9 = 0x41e
                    0x041e                  _ADCBUF9 = 0x41e
                    0x0420                  ADCBUF10 = 0x420
                    0x0420                  _ADCBUF10 = 0x420
                    0x0422                  ADCBUF11 = 0x422
                    0x0422                  _ADCBUF11 = 0x422
                    0x0428                  ADCBUF14 = 0x428
                    0x0428                  _ADCBUF14 = 0x428
                    0x042e                  ADCBUF17 = 0x42e
                    0x042e                  _ADCBUF17 = 0x42e
                    0x0430                  ADCBUF18 = 0x430
                    0x0430                  _ADCBUF18 = 0x430
                    0x0432                  ADCBUF19 = 0x432
                    0x0432                  _ADCBUF19 = 0x432
                    0x0434                  ADCBUF20 = 0x434
                    0x0434                  _ADCBUF20 = 0x434
                    0x0436                  ADCBUF21 = 0x436
                    0x0436                  _ADCBUF21 = 0x436
                    0x0480                  C1CTRL1 = 0x480
                    0x0480                  _C1CTRL1 = 0x480
                    0x0480                  _C1CTRL1bits = 0x480
                    0x0482                  C1CTRL2 = 0x482
                    0x0482                  _C1CTRL2 = 0x482
                    0x0482                  _C1CTRL2bits = 0x482
                    0x0484                  C1VEC = 0x484
                    0x0484                  _C1VEC = 0x484
                    0x0484                  _C1VECbits = 0x484
                    0x0486                  C1FCTRL = 0x486
                    0x0486                  _C1FCTRL = 0x486
                    0x0486                  _C1FCTRLbits = 0x486
                    0x0488                  C1FIFO = 0x488
                    0x0488                  _C1FIFO = 0x488
                    0x0488                  _C1FIFObits = 0x488
                    0x048a                  C1INTF = 0x48a
                    0x048a                  _C1INTF = 0x48a
                    0x048a                  _C1INTFbits = 0x48a
                    0x048c                  C1INTE = 0x48c
                    0x048c                  _C1INTE = 0x48c
                    0x048c                  _C1INTEbits = 0x48c
                    0x048e                  C1EC = 0x48e
                    0x048e                  _C1EC = 0x48e
                    0x048e                  _C1ECbits = 0x48e
                    0x048e                  C1RERRCNT = 0x48e
                    0x048e                  _C1RERRCNT = 0x48e
                    0x048f                  C1TERRCNT = 0x48f
                    0x048f                  _C1TERRCNT = 0x48f
                    0x0490                  C1CFG1 = 0x490
                    0x0490                  _C1CFG1 = 0x490
                    0x0490                  _C1CFG1bits = 0x490
                    0x0492                  C1CFG2 = 0x492
                    0x0492                  _C1CFG2 = 0x492
                    0x0492                  _C1CFG2bits = 0x492
                    0x0494                  C1FEN1 = 0x494
                    0x0494                  _C1FEN1 = 0x494
                    0x0494                  _C1FEN1bits = 0x494
                    0x0498                  C1FMSKSEL1 = 0x498
                    0x0498                  _C1FMSKSEL1 = 0x498
                    0x0498                  _C1FMSKSEL1bits = 0x498
                    0x049a                  C1FMSKSEL2 = 0x49a
                    0x049a                  _C1FMSKSEL2 = 0x49a
                    0x049a                  _C1FMSKSEL2bits = 0x49a
                    0x04a0                  C1BUFPNT1 = 0x4a0
                    0x04a0                  _C1BUFPNT1 = 0x4a0
                    0x04a0                  _C1BUFPNT1bits = 0x4a0
                    0x04a0                  C1RXFUL1 = 0x4a0
                    0x04a0                  _C1RXFUL1 = 0x4a0
                    0x04a0                  _C1RXFUL1bits = 0x4a0
                    0x04a2                  C1BUFPNT2 = 0x4a2
                    0x04a2                  _C1BUFPNT2 = 0x4a2
                    0x04a2                  _C1BUFPNT2bits = 0x4a2
                    0x04a2                  C1RXFUL2 = 0x4a2
                    0x04a2                  _C1RXFUL2 = 0x4a2
                    0x04a2                  _C1RXFUL2bits = 0x4a2
                    0x04a4                  C1BUFPNT3 = 0x4a4
                    0x04a4                  _C1BUFPNT3 = 0x4a4
                    0x04a4                  _C1BUFPNT3bits = 0x4a4
                    0x04a6                  C1BUFPNT4 = 0x4a6
                    0x04a6                  _C1BUFPNT4 = 0x4a6
                    0x04a6                  _C1BUFPNT4bits = 0x4a6
                    0x04a8                  C1RXOVF1 = 0x4a8
                    0x04a8                  _C1RXOVF1 = 0x4a8
                    0x04a8                  _C1RXOVF1bits = 0x4a8
                    0x04aa                  C1RXOVF2 = 0x4aa
                    0x04aa                  _C1RXOVF2 = 0x4aa
                    0x04aa                  _C1RXOVF2bits = 0x4aa
                    0x04b0                  C1RXM0SID = 0x4b0
                    0x04b0                  _C1RXM0SID = 0x4b0
                    0x04b0                  _C1RXM0SIDbits = 0x4b0
                    0x04b0                  C1TR01CON = 0x4b0
                    0x04b0                  _C1TR01CON = 0x4b0
                    0x04b0                  _C1TR01CONbits = 0x4b0
                    0x04b2                  C1RXM0EID = 0x4b2
                    0x04b2                  _C1RXM0EID = 0x4b2
                    0x04b2                  _C1RXM0EIDbits = 0x4b2
                    0x04b2                  C1TR23CON = 0x4b2
                    0x04b2                  _C1TR23CON = 0x4b2
                    0x04b2                  _C1TR23CONbits = 0x4b2
                    0x04b4                  C1RXM1SID = 0x4b4
                    0x04b4                  _C1RXM1SID = 0x4b4
                    0x04b4                  _C1RXM1SIDbits = 0x4b4
                    0x04b4                  C1TR45CON = 0x4b4
                    0x04b4                  _C1TR45CON = 0x4b4
                    0x04b4                  _C1TR45CONbits = 0x4b4
                    0x04b6                  C1RXM1EID = 0x4b6
                    0x04b6                  _C1RXM1EID = 0x4b6
                    0x04b6                  _C1RXM1EIDbits = 0x4b6
                    0x04b6                  C1TR67CON = 0x4b6
                    0x04b6                  _C1TR67CON = 0x4b6
                    0x04b6                  _C1TR67CONbits = 0x4b6
                    0x04b8                  C1RXM2SID = 0x4b8
                    0x04b8                  _C1RXM2SID = 0x4b8
                    0x04b8                  _C1RXM2SIDbits = 0x4b8
                    0x04ba                  C1RXM2EID = 0x4ba
                    0x04ba                  _C1RXM2EID = 0x4ba
                    0x04ba                  _C1RXM2EIDbits = 0x4ba
                    0x04c0                  C1RXD = 0x4c0
                    0x04c0                  _C1RXD = 0x4c0
                    0x04c0                  C1RXF0SID = 0x4c0
                    0x04c0                  _C1RXF0SID = 0x4c0
                    0x04c0                  _C1RXF0SIDbits = 0x4c0
                    0x04c2                  C1RXF0EID = 0x4c2
                    0x04c2                  _C1RXF0EID = 0x4c2
                    0x04c2                  _C1RXF0EIDbits = 0x4c2
                    0x04c2                  C1TXD = 0x4c2
                    0x04c2                  _C1TXD = 0x4c2
                    0x04c4                  C1RXF1SID = 0x4c4
                    0x04c4                  _C1RXF1SID = 0x4c4
                    0x04c4                  _C1RXF1SIDbits = 0x4c4
                    0x04c6                  C1RXF1EID = 0x4c6
                    0x04c6                  _C1RXF1EID = 0x4c6
                    0x04c6                  _C1RXF1EIDbits = 0x4c6
                    0x04c8                  C1RXF2SID = 0x4c8
                    0x04c8                  _C1RXF2SID = 0x4c8
                    0x04c8                  _C1RXF2SIDbits = 0x4c8
                    0x04ca                  C1RXF2EID = 0x4ca
                    0x04ca                  _C1RXF2EID = 0x4ca
                    0x04ca                  _C1RXF2EIDbits = 0x4ca
                    0x04cc                  C1RXF3SID = 0x4cc
                    0x04cc                  _C1RXF3SID = 0x4cc
                    0x04cc                  _C1RXF3SIDbits = 0x4cc
                    0x04ce                  C1RXF3EID = 0x4ce
                    0x04ce                  _C1RXF3EID = 0x4ce
                    0x04ce                  _C1RXF3EIDbits = 0x4ce
                    0x04d0                  C1RXF4SID = 0x4d0
                    0x04d0                  _C1RXF4SID = 0x4d0
                    0x04d0                  _C1RXF4SIDbits = 0x4d0
                    0x04d2                  C1RXF4EID = 0x4d2
                    0x04d2                  _C1RXF4EID = 0x4d2
                    0x04d2                  _C1RXF4EIDbits = 0x4d2
                    0x04d4                  C1RXF5SID = 0x4d4
                    0x04d4                  _C1RXF5SID = 0x4d4
                    0x04d4                  _C1RXF5SIDbits = 0x4d4
                    0x04d6                  C1RXF5EID = 0x4d6
                    0x04d6                  _C1RXF5EID = 0x4d6
                    0x04d6                  _C1RXF5EIDbits = 0x4d6
                    0x04d8                  C1RXF6SID = 0x4d8
                    0x04d8                  _C1RXF6SID = 0x4d8
                    0x04d8                  _C1RXF6SIDbits = 0x4d8
                    0x04da                  C1RXF6EID = 0x4da
                    0x04da                  _C1RXF6EID = 0x4da
                    0x04da                  _C1RXF6EIDbits = 0x4da
                    0x04dc                  C1RXF7SID = 0x4dc
                    0x04dc                  _C1RXF7SID = 0x4dc
                    0x04dc                  _C1RXF7SIDbits = 0x4dc
                    0x04de                  C1RXF7EID = 0x4de
                    0x04de                  _C1RXF7EID = 0x4de
                    0x04de                  _C1RXF7EIDbits = 0x4de
                    0x04e0                  C1RXF8SID = 0x4e0
                    0x04e0                  _C1RXF8SID = 0x4e0
                    0x04e0                  _C1RXF8SIDbits = 0x4e0
                    0x04e2                  C1RXF8EID = 0x4e2
                    0x04e2                  _C1RXF8EID = 0x4e2
                    0x04e2                  _C1RXF8EIDbits = 0x4e2
                    0x04e4                  C1RXF9SID = 0x4e4
                    0x04e4                  _C1RXF9SID = 0x4e4
                    0x04e4                  _C1RXF9SIDbits = 0x4e4
                    0x04e6                  C1RXF9EID = 0x4e6
                    0x04e6                  _C1RXF9EID = 0x4e6
                    0x04e6                  _C1RXF9EIDbits = 0x4e6
                    0x04e8                  C1RXF10SID = 0x4e8
                    0x04e8                  _C1RXF10SID = 0x4e8
                    0x04e8                  _C1RXF10SIDbits = 0x4e8
                    0x04ea                  C1RXF10EID = 0x4ea
                    0x04ea                  _C1RXF10EID = 0x4ea
                    0x04ea                  _C1RXF10EIDbits = 0x4ea
                    0x04ec                  C1RXF11SID = 0x4ec
                    0x04ec                  _C1RXF11SID = 0x4ec
                    0x04ec                  _C1RXF11SIDbits = 0x4ec
                    0x04ee                  C1RXF11EID = 0x4ee
                    0x04ee                  _C1RXF11EID = 0x4ee
                    0x04ee                  _C1RXF11EIDbits = 0x4ee
                    0x04f0                  C1RXF12SID = 0x4f0
                    0x04f0                  _C1RXF12SID = 0x4f0
                    0x04f0                  _C1RXF12SIDbits = 0x4f0
                    0x04f2                  C1RXF12EID = 0x4f2
                    0x04f2                  _C1RXF12EID = 0x4f2
                    0x04f2                  _C1RXF12EIDbits = 0x4f2
                    0x04f4                  C1RXF13SID = 0x4f4
                    0x04f4                  _C1RXF13SID = 0x4f4
                    0x04f4                  _C1RXF13SIDbits = 0x4f4
                    0x04f6                  C1RXF13EID = 0x4f6
                    0x04f6                  _C1RXF13EID = 0x4f6
                    0x04f6                  _C1RXF13EIDbits = 0x4f6
                    0x04f8                  C1RXF14SID = 0x4f8
                    0x04f8                  _C1RXF14SID = 0x4f8
                    0x04f8                  _C1RXF14SIDbits = 0x4f8
                    0x04fa                  C1RXF14EID = 0x4fa
                    0x04fa                  _C1RXF14EID = 0x4fa
                    0x04fa                  _C1RXF14EIDbits = 0x4fa
                    0x04fc                  C1RXF15SID = 0x4fc
                    0x04fc                  _C1RXF15SID = 0x4fc
                    0x04fc                  _C1RXF15SIDbits = 0x4fc
                    0x04fe                  C1RXF15EID = 0x4fe
                    0x04fe                  _C1RXF15EID = 0x4fe
                    0x04fe                  _C1RXF15EIDbits = 0x4fe
                    0x0500                  ISRCCON = 0x500
                    0x0500                  _ISRCCON = 0x500
                    0x0500                  _ISRCCONbits = 0x500
                    0x0504                  PGA1CON = 0x504
                    0x0504                  _PGA1CON = 0x504
                    0x0504                  _PGA1CONbits = 0x504
                    0x0506                  PGA1CAL = 0x506
                    0x0506                  _PGA1CAL = 0x506
                    0x0506                  _PGA1CALbits = 0x506
                    0x0508                  PGA2CON = 0x508
                    0x0508                  _PGA2CON = 0x508
                    0x0508                  _PGA2CONbits = 0x508
                    0x050a                  PGA2CAL = 0x50a
                    0x050a                  _PGA2CAL = 0x50a
                    0x050a                  _PGA2CALbits = 0x50a
                    0x0540                  CMP1CON = 0x540
                    0x0540                  _CMP1CON = 0x540
                    0x0540                  _CMP1CONbits = 0x540
                    0x0542                  CMP1DAC = 0x542
                    0x0542                  _CMP1DAC = 0x542
                    0x0542                  _CMP1DACbits = 0x542
                    0x0544                  CMP2CON = 0x544
                    0x0544                  _CMP2CON = 0x544
                    0x0544                  _CMP2CONbits = 0x544
                    0x0546                  CMP2DAC = 0x546
                    0x0546                  _CMP2DAC = 0x546
                    0x0546                  _CMP2DACbits = 0x546
                    0x0548                  CMP3CON = 0x548
                    0x0548                  _CMP3CON = 0x548
                    0x0548                  _CMP3CONbits = 0x548
                    0x054a                  CMP3DAC = 0x54a
                    0x054a                  _CMP3DAC = 0x54a
                    0x054a                  _CMP3DACbits = 0x54a
                    0x054c                  CMP4CON = 0x54c
                    0x054c                  _CMP4CON = 0x54c
                    0x054c                  _CMP4CONbits = 0x54c
                    0x054e                  CMP4DAC = 0x54e
                    0x054e                  _CMP4DAC = 0x54e
                    0x054e                  _CMP4DACbits = 0x54e
                    0x0600                  SPI3CON1 = 0x600
                    0x0600                  _SPI3CON1 = 0x600
                    0x0600                  _SPI3CON1bits = 0x600
                    0x0600                  SPI3CON1L = 0x600
                    0x0600                  _SPI3CON1L = 0x600
                    0x0600                  _SPI3CON1Lbits = 0x600
                    0x0602                  SPI3CON1H = 0x602
                    0x0602                  _SPI3CON1H = 0x602
                    0x0602                  _SPI3CON1Hbits = 0x602
                    0x0602                  SPI3CON2 = 0x602
                    0x0602                  _SPI3CON2 = 0x602
                    0x0602                  _SPI3CON2bits = 0x602
                    0x0604                  SPI3CON2L = 0x604
                    0x0604                  _SPI3CON2L = 0x604
                    0x0604                  _SPI3CON2Lbits = 0x604
                    0x0604                  SPI3CON3 = 0x604
                    0x0604                  _SPI3CON3 = 0x604
                    0x0604                  _SPI3CON3bits = 0x604
                    0x0606                  SPI3CON2H = 0x606
                    0x0606                  _SPI3CON2H = 0x606
                    0x0606                  SPI3CON4 = 0x606
                    0x0606                  _SPI3CON4 = 0x606
                    0x0608                  SPI3STATL = 0x608
                    0x0608                  _SPI3STATL = 0x608
                    0x0608                  _SPI3STATLbits = 0x608
                    0x060a                  SPI3STATH = 0x60a
                    0x060a                  _SPI3STATH = 0x60a
                    0x060a                  _SPI3STATHbits = 0x60a
                    0x060c                  SPI3BUFL = 0x60c
                    0x060c                  _SPI3BUFL = 0x60c
                    0x060c                  _SPI3BUFLbits = 0x60c
                    0x060e                  SPI3BUFH = 0x60e
                    0x060e                  _SPI3BUFH = 0x60e
                    0x060e                  _SPI3BUFHbits = 0x60e
                    0x0610                  SPI3BRGL = 0x610
                    0x0610                  _SPI3BRGL = 0x610
                    0x0610                  _SPI3BRGLbits = 0x610
                    0x0612                  SPI3BRGH = 0x612
                    0x0612                  _SPI3BRGH = 0x612
                    0x0614                  SPI3IMSK1 = 0x614
                    0x0614                  _SPI3IMSK1 = 0x614
                    0x0614                  _SPI3IMSK1bits = 0x614
                    0x0614                  SPI3IMSKL = 0x614
                    0x0614                  _SPI3IMSKL = 0x614
                    0x0614                  _SPI3IMSKLbits = 0x614
                    0x0616                  SPI3IMSK2 = 0x616
                    0x0616                  _SPI3IMSK2 = 0x616
                    0x0616                  _SPI3IMSK2bits = 0x616
                    0x0616                  SPI3IMSKH = 0x616
                    0x0616                  _SPI3IMSKH = 0x616
                    0x0616                  _SPI3IMSKHbits = 0x616
                    0x0618                  SPI3URDTL = 0x618
                    0x0618                  _SPI3URDTL = 0x618
                    0x0618                  _SPI3URDTLbits = 0x618
                    0x061a                  SPI3URDTH = 0x61a
                    0x061a                  _SPI3URDTH = 0x61a
                    0x061a                  _SPI3URDTHbits = 0x61a
                    0x0668                  RPOR0 = 0x668
                    0x0668                  _RPOR0 = 0x668
                    0x0668                  _RPOR0bits = 0x668
                    0x066a                  RPOR1 = 0x66a
                    0x066a                  _RPOR1 = 0x66a
                    0x066a                  _RPOR1bits = 0x66a
                    0x066c                  RPOR2 = 0x66c
                    0x066c                  _RPOR2 = 0x66c
                    0x066c                  _RPOR2bits = 0x66c
                    0x066e                  RPOR3 = 0x66e
                    0x066e                  _RPOR3 = 0x66e
                    0x066e                  _RPOR3bits = 0x66e
                    0x0670                  RPOR4 = 0x670
                    0x0670                  _RPOR4 = 0x670
                    0x0670                  _RPOR4bits = 0x670
                    0x0672                  RPOR5 = 0x672
                    0x0672                  _RPOR5 = 0x672
                    0x0672                  _RPOR5bits = 0x672
                    0x0674                  RPOR6 = 0x674
                    0x0674                  _RPOR6 = 0x674
                    0x0674                  _RPOR6bits = 0x674
                    0x0676                  RPOR7 = 0x676
                    0x0676                  _RPOR7 = 0x676
                    0x0676                  _RPOR7bits = 0x676
                    0x0678                  RPOR8 = 0x678
                    0x0678                  _RPOR8 = 0x678
                    0x0678                  _RPOR8bits = 0x678
                    0x067a                  RPOR9 = 0x67a
                    0x067a                  _RPOR9 = 0x67a
                    0x067a                  _RPOR9bits = 0x67a
                    0x067c                  RPOR10 = 0x67c
                    0x067c                  _RPOR10 = 0x67c
                    0x067c                  _RPOR10bits = 0x67c
                    0x067e                  RPOR11 = 0x67e
                    0x067e                  _RPOR11 = 0x67e
                    0x067e                  _RPOR11bits = 0x67e
                    0x0680                  RPOR12 = 0x680
                    0x0680                  _RPOR12 = 0x680
                    0x0680                  _RPOR12bits = 0x680
                    0x0682                  RPOR13 = 0x682
                    0x0682                  _RPOR13 = 0x682
                    0x0682                  _RPOR13bits = 0x682
                    0x0684                  RPOR14 = 0x684
                    0x0684                  _RPOR14 = 0x684
                    0x0684                  _RPOR14bits = 0x684
                    0x0686                  RPOR15 = 0x686
                    0x0686                  _RPOR15 = 0x686
                    0x0686                  _RPOR15bits = 0x686
                    0x0688                  RPOR16 = 0x688
                    0x0688                  _RPOR16 = 0x688
                    0x0688                  _RPOR16bits = 0x688
                    0x068a                  RPOR17 = 0x68a
                    0x068a                  _RPOR17 = 0x68a
                    0x068a                  _RPOR17bits = 0x68a
                    0x068c                  RPOR18 = 0x68c
                    0x068c                  _RPOR18 = 0x68c
                    0x068c                  _RPOR18bits = 0x68c
                    0x068e                  RPOR19 = 0x68e
                    0x068e                  _RPOR19 = 0x68e
                    0x068e                  _RPOR19bits = 0x68e
                    0x0690                  RPOR20 = 0x690
                    0x0690                  _RPOR20 = 0x690
                    0x0690                  _RPOR20bits = 0x690
                    0x0692                  RPOR21 = 0x692
                    0x0692                  _RPOR21 = 0x692
                    0x0692                  _RPOR21bits = 0x692
                    0x0694                  RPOR22 = 0x694
                    0x0694                  _RPOR22 = 0x694
                    0x0694                  _RPOR22bits = 0x694
                    0x0696                  RPOR23 = 0x696
                    0x0696                  _RPOR23 = 0x696
                    0x0696                  _RPOR23bits = 0x696
                    0x0698                  RPOR24 = 0x698
                    0x0698                  _RPOR24 = 0x698
                    0x0698                  _RPOR24bits = 0x698
                    0x069a                  RPOR25 = 0x69a
                    0x069a                  _RPOR25 = 0x69a
                    0x069a                  _RPOR25bits = 0x69a
                    0x069c                  RPOR26 = 0x69c
                    0x069c                  _RPOR26 = 0x69c
                    0x069c                  _RPOR26bits = 0x69c
                    0x06a0                  RPINR0 = 0x6a0
                    0x06a0                  _RPINR0 = 0x6a0
                    0x06a0                  _RPINR0bits = 0x6a0
                    0x06a2                  RPINR1 = 0x6a2
                    0x06a2                  _RPINR1 = 0x6a2
                    0x06a2                  _RPINR1bits = 0x6a2
                    0x06a4                  RPINR2 = 0x6a4
                    0x06a4                  _RPINR2 = 0x6a4
                    0x06a4                  _RPINR2bits = 0x6a4
                    0x06a6                  RPINR3 = 0x6a6
                    0x06a6                  _RPINR3 = 0x6a6
                    0x06a6                  _RPINR3bits = 0x6a6
                    0x06ae                  RPINR7 = 0x6ae
                    0x06ae                  _RPINR7 = 0x6ae
                    0x06ae                  _RPINR7bits = 0x6ae
                    0x06b0                  RPINR8 = 0x6b0
                    0x06b0                  _RPINR8 = 0x6b0
                    0x06b0                  _RPINR8bits = 0x6b0
                    0x06b6                  RPINR11 = 0x6b6
                    0x06b6                  _RPINR11 = 0x6b6
                    0x06b6                  _RPINR11bits = 0x6b6
                    0x06b8                  RPINR12 = 0x6b8
                    0x06b8                  _RPINR12 = 0x6b8
                    0x06b8                  _RPINR12bits = 0x6b8
                    0x06ba                  RPINR13 = 0x6ba
                    0x06ba                  _RPINR13 = 0x6ba
                    0x06ba                  _RPINR13bits = 0x6ba
                    0x06c4                  RPINR18 = 0x6c4
                    0x06c4                  _RPINR18 = 0x6c4
                    0x06c4                  _RPINR18bits = 0x6c4
                    0x06c6                  RPINR19 = 0x6c6
                    0x06c6                  _RPINR19 = 0x6c6
                    0x06c6                  _RPINR19bits = 0x6c6
                    0x06c8                  RPINR20 = 0x6c8
                    0x06c8                  _RPINR20 = 0x6c8
                    0x06c8                  _RPINR20bits = 0x6c8
                    0x06ca                  RPINR21 = 0x6ca
                    0x06ca                  _RPINR21 = 0x6ca
                    0x06ca                  _RPINR21bits = 0x6ca
                    0x06cc                  RPINR22 = 0x6cc
                    0x06cc                  _RPINR22 = 0x6cc
                    0x06cc                  _RPINR22bits = 0x6cc
                    0x06ce                  RPINR23 = 0x6ce
                    0x06ce                  _RPINR23 = 0x6ce
                    0x06ce                  _RPINR23bits = 0x6ce
                    0x06d4                  RPINR26 = 0x6d4
                    0x06d4                  _RPINR26 = 0x6d4
                    0x06d4                  _RPINR26bits = 0x6d4
                    0x06da                  RPINR29 = 0x6da
                    0x06da                  _RPINR29 = 0x6da
                    0x06da                  _RPINR29bits = 0x6da
                    0x06dc                  RPINR30 = 0x6dc
                    0x06dc                  _RPINR30 = 0x6dc
                    0x06dc                  _RPINR30bits = 0x6dc
                    0x06ea                  RPINR37 = 0x6ea
                    0x06ea                  _RPINR37 = 0x6ea
                    0x06ea                  _RPINR37bits = 0x6ea
                    0x06ec                  RPINR38 = 0x6ec
                    0x06ec                  _RPINR38 = 0x6ec
                    0x06ec                  _RPINR38bits = 0x6ec
                    0x06f4                  RPINR42 = 0x6f4
                    0x06f4                  _RPINR42 = 0x6f4
                    0x06f4                  _RPINR42bits = 0x6f4
                    0x06f6                  RPINR43 = 0x6f6
                    0x06f6                  _RPINR43 = 0x6f6
                    0x06f6                  _RPINR43bits = 0x6f6
                    0x06fa                  RPINR45 = 0x6fa
                    0x06fa                  _RPINR45 = 0x6fa
                    0x06fa                  _RPINR45bits = 0x6fa
                    0x06fc                  RPINR46 = 0x6fc
                    0x06fc                  _RPINR46 = 0x6fc
                    0x06fc                  _RPINR46bits = 0x6fc
                    0x0728                  NVMCON = 0x728
                    0x0728                  _NVMCON = 0x728
                    0x0728                  _NVMCONbits = 0x728
                    0x072a                  NVMADR = 0x72a
                    0x072a                  _NVMADR = 0x72a
                    0x072a                  _NVMADRbits = 0x72a
                    0x072a                  NVMADRL = 0x72a
                    0x072a                  _NVMADRL = 0x72a
                    0x072a                  _NVMADRLbits = 0x72a
                    0x072c                  NVMADRH = 0x72c
                    0x072c                  _NVMADRH = 0x72c
                    0x072c                  _NVMADRHbits = 0x72c
                    0x072c                  NVMADRU = 0x72c
                    0x072c                  _NVMADRU = 0x72c
                    0x072c                  _NVMADRUbits = 0x72c
                    0x072e                  NVMKEY = 0x72e
                    0x072e                  _NVMKEY = 0x72e
                    0x0730                  NVMSRCADDR = 0x730
                    0x0730                  _NVMSRCADDR = 0x730
                    0x0730                  _NVMSRCADDRbits = 0x730
                    0x0730                  NVMSRCADR = 0x730
                    0x0730                  _NVMSRCADR = 0x730
                    0x0730                  _NVMSRCADRbits = 0x730
                    0x0730                  NVMSRCADRL = 0x730
                    0x0730                  _NVMSRCADRL = 0x730
                    0x0730                  _NVMSRCADRLbits = 0x730
                    0x0732                  NVMSRCADRH = 0x732
                    0x0732                  _NVMSRCADRH = 0x732
                    0x0732                  _NVMSRCADRHbits = 0x732
                    0x0740                  RCON = 0x740
                    0x0740                  _RCON = 0x740
                    0x0740                  _RCONbits = 0x740
                    0x0742                  OSCCON = 0x742
                    0x0742                  _OSCCON = 0x742
                    0x0742                  _OSCCONbits = 0x742
                    0x0742                  OSCCONL = 0x742
                    0x0742                  _OSCCONL = 0x742
                    0x0743                  OSCCONH = 0x743
                    0x0743                  _OSCCONH = 0x743
                    0x0744                  CLKDIV = 0x744
                    0x0744                  _CLKDIV = 0x744
                    0x0744                  _CLKDIVbits = 0x744
                    0x0746                  PLLFBD = 0x746
                    0x0746                  _PLLFBD = 0x746
                    0x0746                  _PLLFBDbits = 0x746
                    0x0748                  OSCTUN = 0x748
                    0x0748                  _OSCTUN = 0x748
                    0x0748                  _OSCTUNbits = 0x748
                    0x074c                  LFSR = 0x74c
                    0x074c                  _LFSR = 0x74c
                    0x074c                  _LFSRbits = 0x74c
                    0x074e                  REFOCON = 0x74e
                    0x074e                  _REFOCON = 0x74e
                    0x074e                  _REFOCONbits = 0x74e
                    0x0750                  ACLKCON = 0x750
                    0x0750                  _ACLKCON = 0x750
                    0x0750                  _ACLKCONbits = 0x750
                    0x0760                  PMD1 = 0x760
                    0x0760                  _PMD1 = 0x760
                    0x0760                  _PMD1bits = 0x760
                    0x0762                  PMD2 = 0x762
                    0x0762                  _PMD2 = 0x762
                    0x0762                  _PMD2bits = 0x762
                    0x0764                  PMD3 = 0x764
                    0x0764                  _PMD3 = 0x764
                    0x0764                  _PMD3bits = 0x764
                    0x0766                  PMD4 = 0x766
                    0x0766                  _PMD4 = 0x766
                    0x0766                  _PMD4bits = 0x766
                    0x076a                  PMD6 = 0x76a
                    0x076a                  _PMD6 = 0x76a
                    0x076a                  _PMD6bits = 0x76a
                    0x076c                  PMD7 = 0x76c
                    0x076c                  _PMD7 = 0x76c
                    0x076c                  _PMD7bits = 0x76c
                    0x076e                  PMD8 = 0x76e
                    0x076e                  _PMD8 = 0x76e
                    0x076e                  _PMD8bits = 0x76e
                    0x0780                  C2CTRL1 = 0x780
                    0x0780                  _C2CTRL1 = 0x780
                    0x0780                  _C2CTRL1bits = 0x780
                    0x0782                  C2CTRL2 = 0x782
                    0x0782                  _C2CTRL2 = 0x782
                    0x0782                  _C2CTRL2bits = 0x782
                    0x0784                  C2VEC = 0x784
                    0x0784                  _C2VEC = 0x784
                    0x0784                  _C2VECbits = 0x784
                    0x0786                  C2FCTRL = 0x786
                    0x0786                  _C2FCTRL = 0x786
                    0x0786                  _C2FCTRLbits = 0x786
                    0x0788                  C2FIFO = 0x788
                    0x0788                  _C2FIFO = 0x788
                    0x0788                  _C2FIFObits = 0x788
                    0x078a                  C2INTF = 0x78a
                    0x078a                  _C2INTF = 0x78a
                    0x078a                  _C2INTFbits = 0x78a
                    0x078c                  C2INTE = 0x78c
                    0x078c                  _C2INTE = 0x78c
                    0x078c                  _C2INTEbits = 0x78c
                    0x078e                  C2EC = 0x78e
                    0x078e                  _C2EC = 0x78e
                    0x078e                  _C2ECbits = 0x78e
                    0x078e                  C2RERRCNT = 0x78e
                    0x078e                  _C2RERRCNT = 0x78e
                    0x078f                  C2TERRCNT = 0x78f
                    0x078f                  _C2TERRCNT = 0x78f
                    0x0790                  C2CFG1 = 0x790
                    0x0790                  _C2CFG1 = 0x790
                    0x0790                  _C2CFG1bits = 0x790
                    0x0792                  C2CFG2 = 0x792
                    0x0792                  _C2CFG2 = 0x792
                    0x0792                  _C2CFG2bits = 0x792
                    0x0794                  C2FEN1 = 0x794
                    0x0794                  _C2FEN1 = 0x794
                    0x0794                  _C2FEN1bits = 0x794
                    0x0798                  C2FMSKSEL1 = 0x798
                    0x0798                  _C2FMSKSEL1 = 0x798
                    0x0798                  _C2FMSKSEL1bits = 0x798
                    0x079a                  C2FMSKSEL2 = 0x79a
                    0x079a                  _C2FMSKSEL2 = 0x79a
                    0x079a                  _C2FMSKSEL2bits = 0x79a
                    0x07a0                  C2BUFPNT1 = 0x7a0
                    0x07a0                  _C2BUFPNT1 = 0x7a0
                    0x07a0                  _C2BUFPNT1bits = 0x7a0
                    0x07a0                  C2RXFUL1 = 0x7a0
                    0x07a0                  _C2RXFUL1 = 0x7a0
                    0x07a0                  _C2RXFUL1bits = 0x7a0
                    0x07a2                  C2BUFPNT2 = 0x7a2
                    0x07a2                  _C2BUFPNT2 = 0x7a2
                    0x07a2                  _C2BUFPNT2bits = 0x7a2
                    0x07a2                  C2RXFUL2 = 0x7a2
                    0x07a2                  _C2RXFUL2 = 0x7a2
                    0x07a2                  _C2RXFUL2bits = 0x7a2
                    0x07a4                  C2BUFPNT3 = 0x7a4
                    0x07a4                  _C2BUFPNT3 = 0x7a4
                    0x07a4                  _C2BUFPNT3bits = 0x7a4
                    0x07a6                  C2BUFPNT4 = 0x7a6
                    0x07a6                  _C2BUFPNT4 = 0x7a6
                    0x07a6                  _C2BUFPNT4bits = 0x7a6
                    0x07a8                  C2RXOVF1 = 0x7a8
                    0x07a8                  _C2RXOVF1 = 0x7a8
                    0x07a8                  _C2RXOVF1bits = 0x7a8
                    0x07aa                  C2RXOVF2 = 0x7aa
                    0x07aa                  _C2RXOVF2 = 0x7aa
                    0x07aa                  _C2RXOVF2bits = 0x7aa
                    0x07b0                  C2RXM0SID = 0x7b0
                    0x07b0                  _C2RXM0SID = 0x7b0
                    0x07b0                  _C2RXM0SIDbits = 0x7b0
                    0x07b0                  C2TR01CON = 0x7b0
                    0x07b0                  _C2TR01CON = 0x7b0
                    0x07b0                  _C2TR01CONbits = 0x7b0
                    0x07b2                  C2RXM0EID = 0x7b2
                    0x07b2                  _C2RXM0EID = 0x7b2
                    0x07b2                  _C2RXM0EIDbits = 0x7b2
                    0x07b2                  C2TR23CON = 0x7b2
                    0x07b2                  _C2TR23CON = 0x7b2
                    0x07b2                  _C2TR23CONbits = 0x7b2
                    0x07b4                  C2RXM1SID = 0x7b4
                    0x07b4                  _C2RXM1SID = 0x7b4
                    0x07b4                  _C2RXM1SIDbits = 0x7b4
                    0x07b4                  C2TR45CON = 0x7b4
                    0x07b4                  _C2TR45CON = 0x7b4
                    0x07b4                  _C2TR45CONbits = 0x7b4
                    0x07b6                  C2RXM1EID = 0x7b6
                    0x07b6                  _C2RXM1EID = 0x7b6
                    0x07b6                  _C2RXM1EIDbits = 0x7b6
                    0x07b6                  C2TR67CON = 0x7b6
                    0x07b6                  _C2TR67CON = 0x7b6
                    0x07b6                  _C2TR67CONbits = 0x7b6
                    0x07b8                  C2RXM2SID = 0x7b8
                    0x07b8                  _C2RXM2SID = 0x7b8
                    0x07b8                  _C2RXM2SIDbits = 0x7b8
                    0x07ba                  C2RXM2EID = 0x7ba
                    0x07ba                  _C2RXM2EID = 0x7ba
                    0x07ba                  _C2RXM2EIDbits = 0x7ba
                    0x07c0                  C2RXD = 0x7c0
                    0x07c0                  _C2RXD = 0x7c0
                    0x07c0                  C2RXF0SID = 0x7c0
                    0x07c0                  _C2RXF0SID = 0x7c0
                    0x07c0                  _C2RXF0SIDbits = 0x7c0
                    0x07c2                  C2RXF0EID = 0x7c2
                    0x07c2                  _C2RXF0EID = 0x7c2
                    0x07c2                  _C2RXF0EIDbits = 0x7c2
                    0x07c2                  C2TXD = 0x7c2
                    0x07c2                  _C2TXD = 0x7c2
                    0x07c4                  C2RXF1SID = 0x7c4
                    0x07c4                  _C2RXF1SID = 0x7c4
                    0x07c4                  _C2RXF1SIDbits = 0x7c4
                    0x07c6                  C2RXF1EID = 0x7c6
                    0x07c6                  _C2RXF1EID = 0x7c6
                    0x07c6                  _C2RXF1EIDbits = 0x7c6
                    0x07c8                  C2RXF2SID = 0x7c8
                    0x07c8                  _C2RXF2SID = 0x7c8
                    0x07c8                  _C2RXF2SIDbits = 0x7c8
                    0x07ca                  C2RXF2EID = 0x7ca
                    0x07ca                  _C2RXF2EID = 0x7ca
                    0x07ca                  _C2RXF2EIDbits = 0x7ca
                    0x07cc                  C2RXF3SID = 0x7cc
                    0x07cc                  _C2RXF3SID = 0x7cc
                    0x07cc                  _C2RXF3SIDbits = 0x7cc
                    0x07ce                  C2RXF3EID = 0x7ce
                    0x07ce                  _C2RXF3EID = 0x7ce
                    0x07ce                  _C2RXF3EIDbits = 0x7ce
                    0x07d0                  C2RXF4SID = 0x7d0
                    0x07d0                  _C2RXF4SID = 0x7d0
                    0x07d0                  _C2RXF4SIDbits = 0x7d0
                    0x07d2                  C2RXF4EID = 0x7d2
                    0x07d2                  _C2RXF4EID = 0x7d2
                    0x07d2                  _C2RXF4EIDbits = 0x7d2
                    0x07d4                  C2RXF5SID = 0x7d4
                    0x07d4                  _C2RXF5SID = 0x7d4
                    0x07d4                  _C2RXF5SIDbits = 0x7d4
                    0x07d6                  C2RXF5EID = 0x7d6
                    0x07d6                  _C2RXF5EID = 0x7d6
                    0x07d6                  _C2RXF5EIDbits = 0x7d6
                    0x07d8                  C2RXF6SID = 0x7d8
                    0x07d8                  _C2RXF6SID = 0x7d8
                    0x07d8                  _C2RXF6SIDbits = 0x7d8
                    0x07da                  C2RXF6EID = 0x7da
                    0x07da                  _C2RXF6EID = 0x7da
                    0x07da                  _C2RXF6EIDbits = 0x7da
                    0x07dc                  C2RXF7SID = 0x7dc
                    0x07dc                  _C2RXF7SID = 0x7dc
                    0x07dc                  _C2RXF7SIDbits = 0x7dc
                    0x07de                  C2RXF7EID = 0x7de
                    0x07de                  _C2RXF7EID = 0x7de
                    0x07de                  _C2RXF7EIDbits = 0x7de
                    0x07e0                  C2RXF8SID = 0x7e0
                    0x07e0                  _C2RXF8SID = 0x7e0
                    0x07e0                  _C2RXF8SIDbits = 0x7e0
                    0x07e2                  C2RXF8EID = 0x7e2
                    0x07e2                  _C2RXF8EID = 0x7e2
                    0x07e2                  _C2RXF8EIDbits = 0x7e2
                    0x07e4                  C2RXF9SID = 0x7e4
                    0x07e4                  _C2RXF9SID = 0x7e4
                    0x07e4                  _C2RXF9SIDbits = 0x7e4
                    0x07e6                  C2RXF9EID = 0x7e6
                    0x07e6                  _C2RXF9EID = 0x7e6
                    0x07e6                  _C2RXF9EIDbits = 0x7e6
                    0x07e8                  C2RXF10SID = 0x7e8
                    0x07e8                  _C2RXF10SID = 0x7e8
                    0x07e8                  _C2RXF10SIDbits = 0x7e8
                    0x07ea                  C2RXF10EID = 0x7ea
                    0x07ea                  _C2RXF10EID = 0x7ea
                    0x07ea                  _C2RXF10EIDbits = 0x7ea
                    0x07ec                  C2RXF11SID = 0x7ec
                    0x07ec                  _C2RXF11SID = 0x7ec
                    0x07ec                  _C2RXF11SIDbits = 0x7ec
                    0x07ee                  C2RXF11EID = 0x7ee
                    0x07ee                  _C2RXF11EID = 0x7ee
                    0x07ee                  _C2RXF11EIDbits = 0x7ee
                    0x07f0                  C2RXF12SID = 0x7f0
                    0x07f0                  _C2RXF12SID = 0x7f0
                    0x07f0                  _C2RXF12SIDbits = 0x7f0
                    0x07f2                  C2RXF12EID = 0x7f2
                    0x07f2                  _C2RXF12EID = 0x7f2
                    0x07f2                  _C2RXF12EIDbits = 0x7f2
                    0x07f4                  C2RXF13SID = 0x7f4
                    0x07f4                  _C2RXF13SID = 0x7f4
                    0x07f4                  _C2RXF13SIDbits = 0x7f4
                    0x07f6                  C2RXF13EID = 0x7f6
                    0x07f6                  _C2RXF13EID = 0x7f6
                    0x07f6                  _C2RXF13EIDbits = 0x7f6
                    0x07f8                  C2RXF14SID = 0x7f8
                    0x07f8                  _C2RXF14SID = 0x7f8
                    0x07f8                  _C2RXF14SIDbits = 0x7f8
                    0x07fa                  C2RXF14EID = 0x7fa
                    0x07fa                  _C2RXF14EID = 0x7fa
                    0x07fa                  _C2RXF14EIDbits = 0x7fa
                    0x07fc                  C2RXF15SID = 0x7fc
                    0x07fc                  _C2RXF15SID = 0x7fc
                    0x07fc                  _C2RXF15SIDbits = 0x7fc
                    0x07fe                  C2RXF15EID = 0x7fe
                    0x07fe                  _C2RXF15EID = 0x7fe
                    0x07fe                  _C2RXF15EIDbits = 0x7fe
                    0x0800                  IFS0 = 0x800
                    0x0800                  _IFS0 = 0x800
                    0x0800                  _IFS0bits = 0x800
                    0x0802                  IFS1 = 0x802
                    0x0802                  _IFS1 = 0x802
                    0x0802                  _IFS1bits = 0x802
                    0x0804                  IFS2 = 0x804
                    0x0804                  _IFS2 = 0x804
                    0x0804                  _IFS2bits = 0x804
                    0x0806                  IFS3 = 0x806
                    0x0806                  _IFS3 = 0x806
                    0x0806                  _IFS3bits = 0x806
                    0x0808                  IFS4 = 0x808
                    0x0808                  _IFS4 = 0x808
                    0x0808                  _IFS4bits = 0x808
                    0x080a                  IFS5 = 0x80a
                    0x080a                  _IFS5 = 0x80a
                    0x080a                  _IFS5bits = 0x80a
                    0x080c                  IFS6 = 0x80c
                    0x080c                  _IFS6 = 0x80c
                    0x080c                  _IFS6bits = 0x80c
                    0x080e                  IFS7 = 0x80e
                    0x080e                  _IFS7 = 0x80e
                    0x080e                  _IFS7bits = 0x80e
                    0x0810                  IFS8 = 0x810
                    0x0810                  _IFS8 = 0x810
                    0x0810                  _IFS8bits = 0x810
                    0x0812                  IFS9 = 0x812
                    0x0812                  _IFS9 = 0x812
                    0x0812                  _IFS9bits = 0x812
                    0x0814                  IFS10 = 0x814
                    0x0814                  _IFS10 = 0x814
                    0x0814                  _IFS10bits = 0x814
                    0x0816                  IFS11 = 0x816
                    0x0816                  _IFS11 = 0x816
                    0x0816                  _IFS11bits = 0x816
                    0x0820                  IEC0 = 0x820
                    0x0820                  _IEC0 = 0x820
                    0x0820                  _IEC0bits = 0x820
                    0x0822                  IEC1 = 0x822
                    0x0822                  _IEC1 = 0x822
                    0x0822                  _IEC1bits = 0x822
                    0x0824                  IEC2 = 0x824
                    0x0824                  _IEC2 = 0x824
                    0x0824                  _IEC2bits = 0x824
                    0x0826                  IEC3 = 0x826
                    0x0826                  _IEC3 = 0x826
                    0x0826                  _IEC3bits = 0x826
                    0x0828                  IEC4 = 0x828
                    0x0828                  _IEC4 = 0x828
                    0x0828                  _IEC4bits = 0x828
                    0x082a                  IEC5 = 0x82a
                    0x082a                  _IEC5 = 0x82a
                    0x082a                  _IEC5bits = 0x82a
                    0x082c                  IEC6 = 0x82c
                    0x082c                  _IEC6 = 0x82c
                    0x082c                  _IEC6bits = 0x82c
                    0x082e                  IEC7 = 0x82e
                    0x082e                  _IEC7 = 0x82e
                    0x082e                  _IEC7bits = 0x82e
                    0x0830                  IEC8 = 0x830
                    0x0830                  _IEC8 = 0x830
                    0x0830                  _IEC8bits = 0x830
                    0x0832                  IEC9 = 0x832
                    0x0832                  _IEC9 = 0x832
                    0x0832                  _IEC9bits = 0x832
                    0x0834                  IEC10 = 0x834
                    0x0834                  _IEC10 = 0x834
                    0x0834                  _IEC10bits = 0x834
                    0x0836                  IEC11 = 0x836
                    0x0836                  _IEC11 = 0x836
                    0x0836                  _IEC11bits = 0x836
                    0x0840                  IPC0 = 0x840
                    0x0840                  _IPC0 = 0x840
                    0x0840                  _IPC0bits = 0x840
                    0x0842                  IPC1 = 0x842
                    0x0842                  _IPC1 = 0x842
                    0x0842                  _IPC1bits = 0x842
                    0x0844                  IPC2 = 0x844
                    0x0844                  _IPC2 = 0x844
                    0x0844                  _IPC2bits = 0x844
                    0x0846                  IPC3 = 0x846
                    0x0846                  _IPC3 = 0x846
                    0x0846                  _IPC3bits = 0x846
                    0x0848                  IPC4 = 0x848
                    0x0848                  _IPC4 = 0x848
                    0x0848                  _IPC4bits = 0x848
                    0x084a                  IPC5 = 0x84a
                    0x084a                  _IPC5 = 0x84a
                    0x084a                  _IPC5bits = 0x84a
                    0x084c                  IPC6 = 0x84c
                    0x084c                  _IPC6 = 0x84c
                    0x084c                  _IPC6bits = 0x84c
                    0x084e                  IPC7 = 0x84e
                    0x084e                  _IPC7 = 0x84e
                    0x084e                  _IPC7bits = 0x84e
                    0x0850                  IPC8 = 0x850
                    0x0850                  _IPC8 = 0x850
                    0x0850                  _IPC8bits = 0x850
                    0x0852                  IPC9 = 0x852
                    0x0852                  _IPC9 = 0x852
                    0x0852                  _IPC9bits = 0x852
                    0x0858                  IPC12 = 0x858
                    0x0858                  _IPC12 = 0x858
                    0x0858                  _IPC12bits = 0x858
                    0x085a                  IPC13 = 0x85a
                    0x085a                  _IPC13 = 0x85a
                    0x085a                  _IPC13bits = 0x85a
                    0x085c                  IPC14 = 0x85c
                    0x085c                  _IPC14 = 0x85c
                    0x085c                  _IPC14bits = 0x85c
                    0x0860                  IPC16 = 0x860
                    0x0860                  _IPC16 = 0x860
                    0x0860                  _IPC16bits = 0x860
                    0x0862                  IPC17 = 0x862
                    0x0862                  _IPC17 = 0x862
                    0x0862                  _IPC17bits = 0x862
                    0x0864                  IPC18 = 0x864
                    0x0864                  _IPC18 = 0x864
                    0x0864                  _IPC18bits = 0x864
                    0x086c                  IPC22 = 0x86c
                    0x086c                  _IPC22 = 0x86c
                    0x086c                  _IPC22bits = 0x86c
                    0x086e                  IPC23 = 0x86e
                    0x086e                  _IPC23 = 0x86e
                    0x086e                  _IPC23bits = 0x86e
                    0x0870                  IPC24 = 0x870
                    0x0870                  _IPC24 = 0x870
                    0x0870                  _IPC24bits = 0x870
                    0x0872                  IPC25 = 0x872
                    0x0872                  _IPC25 = 0x872
                    0x0872                  _IPC25bits = 0x872
                    0x0874                  IPC26 = 0x874
                    0x0874                  _IPC26 = 0x874
                    0x0874                  _IPC26bits = 0x874
                    0x0876                  IPC27 = 0x876
                    0x0876                  _IPC27 = 0x876
                    0x0876                  _IPC27bits = 0x876
                    0x0878                  IPC28 = 0x878
                    0x0878                  _IPC28 = 0x878
                    0x0878                  _IPC28bits = 0x878
                    0x087a                  IPC29 = 0x87a
                    0x087a                  _IPC29 = 0x87a
                    0x087a                  _IPC29bits = 0x87a
                    0x087e                  IPC31 = 0x87e
                    0x087e                  _IPC31 = 0x87e
                    0x087e                  _IPC31bits = 0x87e
                    0x0884                  IPC34 = 0x884
                    0x0884                  _IPC34 = 0x884
                    0x0884                  _IPC34bits = 0x884
                    0x0886                  IPC35 = 0x886
                    0x0886                  _IPC35 = 0x886
                    0x0886                  _IPC35bits = 0x886
                    0x0888                  IPC36 = 0x888
                    0x0888                  _IPC36 = 0x888
                    0x0888                  _IPC36bits = 0x888
                    0x088a                  IPC37 = 0x88a
                    0x088a                  _IPC37 = 0x88a
                    0x088a                  _IPC37bits = 0x88a
                    0x088c                  IPC38 = 0x88c
                    0x088c                  _IPC38 = 0x88c
                    0x088c                  _IPC38bits = 0x88c
                    0x088e                  IPC39 = 0x88e
                    0x088e                  _IPC39 = 0x88e
                    0x088e                  _IPC39bits = 0x88e
                    0x0890                  IPC40 = 0x890
                    0x0890                  _IPC40 = 0x890
                    0x0890                  _IPC40bits = 0x890
                    0x0892                  IPC41 = 0x892
                    0x0892                  _IPC41 = 0x892
                    0x0892                  _IPC41bits = 0x892
                    0x0894                  IPC42 = 0x894
                    0x0894                  _IPC42 = 0x894
                    0x0896                  IPC43 = 0x896
                    0x0896                  _IPC43 = 0x896
                    0x0896                  _IPC43bits = 0x896
                    0x0898                  IPC44 = 0x898
                    0x0898                  _IPC44 = 0x898
                    0x0898                  _IPC44bits = 0x898
                    0x089a                  IPC45 = 0x89a
                    0x089a                  _IPC45 = 0x89a
                    0x089a                  _IPC45bits = 0x89a
                    0x089c                  IPC46 = 0x89c
                    0x089c                  _IPC46 = 0x89c
                    0x089c                  _IPC46bits = 0x89c
                    0x089e                  IPC47 = 0x89e
                    0x089e                  _IPC47 = 0x89e
                    0x089e                  _IPC47bits = 0x89e
                    0x08c0                  INTCON1 = 0x8c0
                    0x08c0                  _INTCON1 = 0x8c0
                    0x08c0                  _INTCON1bits = 0x8c0
                    0x08c2                  INTCON2 = 0x8c2
                    0x08c2                  _INTCON2 = 0x8c2
                    0x08c2                  _INTCON2bits = 0x8c2
                    0x08c4                  INTCON3 = 0x8c4
                    0x08c4                  _INTCON3 = 0x8c4
                    0x08c4                  _INTCON3bits = 0x8c4
                    0x08c6                  INTCON4 = 0x8c6
                    0x08c6                  _INTCON4 = 0x8c6
                    0x08c6                  _INTCON4bits = 0x8c6
                    0x08c8                  INTTREG = 0x8c8
                    0x08c8                  _INTTREG = 0x8c8
                    0x08c8                  _INTTREGbits = 0x8c8
                    0x0900                  OC1CON1 = 0x900
                    0x0900                  _OC1CON1 = 0x900
                    0x0900                  _OC1CON1bits = 0x900
                    0x0902                  OC1CON2 = 0x902
                    0x0902                  _OC1CON2 = 0x902
                    0x0902                  _OC1CON2bits = 0x902
                    0x0904                  OC1RS = 0x904
                    0x0904                  _OC1RS = 0x904
                    0x0906                  OC1R = 0x906
                    0x0906                  _OC1R = 0x906
                    0x0908                  OC1TMR = 0x908
                    0x0908                  _OC1TMR = 0x908
                    0x090a                  OC2CON1 = 0x90a
                    0x090a                  _OC2CON1 = 0x90a
                    0x090a                  _OC2CON1bits = 0x90a
                    0x090c                  OC2CON2 = 0x90c
                    0x090c                  _OC2CON2 = 0x90c
                    0x090c                  _OC2CON2bits = 0x90c
                    0x090e                  OC2RS = 0x90e
                    0x090e                  _OC2RS = 0x90e
                    0x0910                  OC2R = 0x910
                    0x0910                  _OC2R = 0x910
                    0x0912                  OC2TMR = 0x912
                    0x0912                  _OC2TMR = 0x912
                    0x0914                  OC3CON1 = 0x914
                    0x0914                  _OC3CON1 = 0x914
                    0x0914                  _OC3CON1bits = 0x914
                    0x0916                  OC3CON2 = 0x916
                    0x0916                  _OC3CON2 = 0x916
                    0x0916                  _OC3CON2bits = 0x916
                    0x0918                  OC3RS = 0x918
                    0x0918                  _OC3RS = 0x918
                    0x091a                  OC3R = 0x91a
                    0x091a                  _OC3R = 0x91a
                    0x091c                  OC3TMR = 0x91c
                    0x091c                  _OC3TMR = 0x91c
                    0x091e                  OC4CON1 = 0x91e
                    0x091e                  _OC4CON1 = 0x91e
                    0x091e                  _OC4CON1bits = 0x91e
                    0x0920                  OC4CON2 = 0x920
                    0x0920                  _OC4CON2 = 0x920
                    0x0920                  _OC4CON2bits = 0x920
                    0x0922                  OC4RS = 0x922
                    0x0922                  _OC4RS = 0x922
                    0x0924                  OC4R = 0x924
                    0x0924                  _OC4R = 0x924
                    0x0926                  OC4TMR = 0x926
                    0x0926                  _OC4TMR = 0x926
                    0x09c0                  CLC1CONL = 0x9c0
                    0x09c0                  _CLC1CONL = 0x9c0
                    0x09c0                  _CLC1CONLbits = 0x9c0
                    0x09c2                  CLC1CONH = 0x9c2
                    0x09c2                  _CLC1CONH = 0x9c2
                    0x09c2                  _CLC1CONHbits = 0x9c2
                    0x09c4                  CLC1SEL = 0x9c4
                    0x09c4                  _CLC1SEL = 0x9c4
                    0x09c4                  _CLC1SELbits = 0x9c4
                    0x09c4                  CLC1SELL = 0x9c4
                    0x09c4                  _CLC1SELL = 0x9c4
                    0x09c4                  _CLC1SELLbits = 0x9c4
                    0x09c8                  CLC1GLSL = 0x9c8
                    0x09c8                  _CLC1GLSL = 0x9c8
                    0x09c8                  _CLC1GLSLbits = 0x9c8
                    0x09ca                  CLC1GLSH = 0x9ca
                    0x09ca                  _CLC1GLSH = 0x9ca
                    0x09ca                  _CLC1GLSHbits = 0x9ca
                    0x09cc                  CLC2CONL = 0x9cc
                    0x09cc                  _CLC2CONL = 0x9cc
                    0x09cc                  _CLC2CONLbits = 0x9cc
                    0x09ce                  CLC2CONH = 0x9ce
                    0x09ce                  _CLC2CONH = 0x9ce
                    0x09ce                  _CLC2CONHbits = 0x9ce
                    0x09d0                  CLC2SEL = 0x9d0
                    0x09d0                  _CLC2SEL = 0x9d0
                    0x09d0                  _CLC2SELbits = 0x9d0
                    0x09d0                  CLC2SELL = 0x9d0
                    0x09d0                  _CLC2SELL = 0x9d0
                    0x09d0                  _CLC2SELLbits = 0x9d0
                    0x09d4                  CLC2GLSL = 0x9d4
                    0x09d4                  _CLC2GLSL = 0x9d4
                    0x09d4                  _CLC2GLSLbits = 0x9d4
                    0x09d6                  CLC2GLSH = 0x9d6
                    0x09d6                  _CLC2GLSH = 0x9d6
                    0x09d6                  _CLC2GLSHbits = 0x9d6
                    0x09d8                  CLC3CONL = 0x9d8
                    0x09d8                  _CLC3CONL = 0x9d8
                    0x09d8                  _CLC3CONLbits = 0x9d8
                    0x09da                  CLC3CONH = 0x9da
                    0x09da                  _CLC3CONH = 0x9da
                    0x09da                  _CLC3CONHbits = 0x9da
                    0x09dc                  CLC3SEL = 0x9dc
                    0x09dc                  _CLC3SEL = 0x9dc
                    0x09dc                  _CLC3SELbits = 0x9dc
                    0x09dc                  CLC3SELL = 0x9dc
                    0x09dc                  _CLC3SELL = 0x9dc
                    0x09dc                  _CLC3SELLbits = 0x9dc
                    0x09e0                  CLC3GLSL = 0x9e0
                    0x09e0                  _CLC3GLSL = 0x9e0
                    0x09e0                  _CLC3GLSLbits = 0x9e0
                    0x09e2                  CLC3GLSH = 0x9e2
                    0x09e2                  _CLC3GLSH = 0x9e2
                    0x09e2                  _CLC3GLSHbits = 0x9e2
                    0x09e4                  CLC4CONL = 0x9e4
                    0x09e4                  _CLC4CONL = 0x9e4
                    0x09e4                  _CLC4CONLbits = 0x9e4
                    0x09e6                  CLC4CONH = 0x9e6
                    0x09e6                  _CLC4CONH = 0x9e6
                    0x09e6                  _CLC4CONHbits = 0x9e6
                    0x09e8                  CLC4SEL = 0x9e8
                    0x09e8                  _CLC4SEL = 0x9e8
                    0x09e8                  _CLC4SELbits = 0x9e8
                    0x09e8                  CLC4SELL = 0x9e8
                    0x09e8                  _CLC4SELL = 0x9e8
                    0x09e8                  _CLC4SELLbits = 0x9e8
                    0x09ec                  CLC4GLSL = 0x9ec
                    0x09ec                  _CLC4GLSL = 0x9ec
                    0x09ec                  _CLC4GLSLbits = 0x9ec
                    0x09ee                  CLC4GLSH = 0x9ee
                    0x09ee                  _CLC4GLSH = 0x9ee
                    0x09ee                  _CLC4GLSHbits = 0x9ee
                    0x0ac0                  PTGCST = 0xac0
                    0x0ac0                  _PTGCST = 0xac0
                    0x0ac0                  _PTGCSTbits = 0xac0
                    0x0ac2                  PTGCON = 0xac2
                    0x0ac2                  _PTGCON = 0xac2
                    0x0ac2                  _PTGCONbits = 0xac2
                    0x0ac4                  PTGBTE = 0xac4
                    0x0ac4                  _PTGBTE = 0xac4
                    0x0ac4                  _PTGBTEbits = 0xac4
                    0x0ac6                  PTGHOLD = 0xac6
                    0x0ac6                  _PTGHOLD = 0xac6
                    0x0ac8                  PTGT0LIM = 0xac8
                    0x0ac8                  _PTGT0LIM = 0xac8
                    0x0aca                  PTGT1LIM = 0xaca
                    0x0aca                  _PTGT1LIM = 0xaca
                    0x0acc                  PTGSDLIM = 0xacc
                    0x0acc                  _PTGSDLIM = 0xacc
                    0x0ace                  PTGC0LIM = 0xace
                    0x0ace                  _PTGC0LIM = 0xace
                    0x0ad0                  PTGC1LIM = 0xad0
                    0x0ad0                  _PTGC1LIM = 0xad0
                    0x0ad2                  PTGADJ = 0xad2
                    0x0ad2                  _PTGADJ = 0xad2
                    0x0ad4                  PTGL0 = 0xad4
                    0x0ad4                  _PTGL0 = 0xad4
                    0x0ad6                  PTGQPTR = 0xad6
                    0x0ad6                  _PTGQPTR = 0xad6
                    0x0ad6                  _PTGQPTRbits = 0xad6
                    0x0ad8                  PTGQUE0 = 0xad8
                    0x0ad8                  _PTGQUE0 = 0xad8
                    0x0ad8                  _PTGQUE0bits = 0xad8
                    0x0ada                  PTGQUE1 = 0xada
                    0x0ada                  _PTGQUE1 = 0xada
                    0x0ada                  _PTGQUE1bits = 0xada
                    0x0adc                  PTGQUE2 = 0xadc
                    0x0adc                  _PTGQUE2 = 0xadc
                    0x0adc                  _PTGQUE2bits = 0xadc
                    0x0ade                  PTGQUE3 = 0xade
                    0x0ade                  _PTGQUE3 = 0xade
                    0x0ade                  _PTGQUE3bits = 0xade
                    0x0ae0                  PTGQUE4 = 0xae0
                    0x0ae0                  _PTGQUE4 = 0xae0
                    0x0ae0                  _PTGQUE4bits = 0xae0
                    0x0ae2                  PTGQUE5 = 0xae2
                    0x0ae2                  _PTGQUE5 = 0xae2
                    0x0ae2                  _PTGQUE5bits = 0xae2
                    0x0ae4                  PTGQUE6 = 0xae4
                    0x0ae4                  _PTGQUE6 = 0xae4
                    0x0ae4                  _PTGQUE6bits = 0xae4
                    0x0ae6                  PTGQUE7 = 0xae6
                    0x0ae6                  _PTGQUE7 = 0xae6
                    0x0ae6                  _PTGQUE7bits = 0xae6
                    0x0ae8                  PTGQUE8 = 0xae8
                    0x0ae8                  _PTGQUE8 = 0xae8
                    0x0ae8                  _PTGQUE8bits = 0xae8
                    0x0aea                  PTGQUE9 = 0xaea
                    0x0aea                  _PTGQUE9 = 0xaea
                    0x0aea                  _PTGQUE9bits = 0xaea
                    0x0aec                  PTGQUE10 = 0xaec
                    0x0aec                  _PTGQUE10 = 0xaec
                    0x0aec                  _PTGQUE10bits = 0xaec
                    0x0aee                  PTGQUE11 = 0xaee
                    0x0aee                  _PTGQUE11 = 0xaee
                    0x0aee                  _PTGQUE11bits = 0xaee
                    0x0af0                  PTGQUE12 = 0xaf0
                    0x0af0                  _PTGQUE12 = 0xaf0
                    0x0af0                  _PTGQUE12bits = 0xaf0
                    0x0af2                  PTGQUE13 = 0xaf2
                    0x0af2                  _PTGQUE13 = 0xaf2
                    0x0af2                  _PTGQUE13bits = 0xaf2
                    0x0af4                  PTGQUE14 = 0xaf4
                    0x0af4                  _PTGQUE14 = 0xaf4
                    0x0af4                  _PTGQUE14bits = 0xaf4
                    0x0af6                  PTGQUE15 = 0xaf6
                    0x0af6                  _PTGQUE15 = 0xaf6
                    0x0af6                  _PTGQUE15bits = 0xaf6
                    0x0b00                  DMA0CON = 0xb00
                    0x0b00                  _DMA0CON = 0xb00
                    0x0b00                  _DMA0CONbits = 0xb00
                    0x0b02                  DMA0REQ = 0xb02
                    0x0b02                  _DMA0REQ = 0xb02
                    0x0b02                  _DMA0REQbits = 0xb02
                    0x0b04                  DMA0STAL = 0xb04
                    0x0b04                  _DMA0STAL = 0xb04
                    0x0b06                  DMA0STAH = 0xb06
                    0x0b06                  _DMA0STAH = 0xb06
                    0x0b06                  _DMA0STAHbits = 0xb06
                    0x0b08                  DMA0STBL = 0xb08
                    0x0b08                  _DMA0STBL = 0xb08
                    0x0b0a                  DMA0STBH = 0xb0a
                    0x0b0a                  _DMA0STBH = 0xb0a
                    0x0b0a                  _DMA0STBHbits = 0xb0a
                    0x0b0c                  DMA0PAD = 0xb0c
                    0x0b0c                  _DMA0PAD = 0xb0c
                    0x0b0e                  DMA0CNT = 0xb0e
                    0x0b0e                  _DMA0CNT = 0xb0e
                    0x0b0e                  _DMA0CNTbits = 0xb0e
                    0x0b10                  DMA1CON = 0xb10
                    0x0b10                  _DMA1CON = 0xb10
                    0x0b10                  _DMA1CONbits = 0xb10
                    0x0b12                  DMA1REQ = 0xb12
                    0x0b12                  _DMA1REQ = 0xb12
                    0x0b12                  _DMA1REQbits = 0xb12
                    0x0b14                  DMA1STAL = 0xb14
                    0x0b14                  _DMA1STAL = 0xb14
                    0x0b16                  DMA1STAH = 0xb16
                    0x0b16                  _DMA1STAH = 0xb16
                    0x0b16                  _DMA1STAHbits = 0xb16
                    0x0b18                  DMA1STBL = 0xb18
                    0x0b18                  _DMA1STBL = 0xb18
                    0x0b1a                  DMA1STBH = 0xb1a
                    0x0b1a                  _DMA1STBH = 0xb1a
                    0x0b1a                  _DMA1STBHbits = 0xb1a
                    0x0b1c                  DMA1PAD = 0xb1c
                    0x0b1c                  _DMA1PAD = 0xb1c
                    0x0b1e                  DMA1CNT = 0xb1e
                    0x0b1e                  _DMA1CNT = 0xb1e
                    0x0b1e                  _DMA1CNTbits = 0xb1e
                    0x0b20                  DMA2CON = 0xb20
                    0x0b20                  _DMA2CON = 0xb20
                    0x0b20                  _DMA2CONbits = 0xb20
                    0x0b22                  DMA2REQ = 0xb22
                    0x0b22                  _DMA2REQ = 0xb22
                    0x0b22                  _DMA2REQbits = 0xb22
                    0x0b24                  DMA2STAL = 0xb24
                    0x0b24                  _DMA2STAL = 0xb24
                    0x0b26                  DMA2STAH = 0xb26
                    0x0b26                  _DMA2STAH = 0xb26
                    0x0b26                  _DMA2STAHbits = 0xb26
                    0x0b28                  DMA2STBL = 0xb28
                    0x0b28                  _DMA2STBL = 0xb28
                    0x0b2a                  DMA2STBH = 0xb2a
                    0x0b2a                  _DMA2STBH = 0xb2a
                    0x0b2a                  _DMA2STBHbits = 0xb2a
                    0x0b2c                  DMA2PAD = 0xb2c
                    0x0b2c                  _DMA2PAD = 0xb2c
                    0x0b2e                  DMA2CNT = 0xb2e
                    0x0b2e                  _DMA2CNT = 0xb2e
                    0x0b2e                  _DMA2CNTbits = 0xb2e
                    0x0b30                  DMA3CON = 0xb30
                    0x0b30                  _DMA3CON = 0xb30
                    0x0b30                  _DMA3CONbits = 0xb30
                    0x0b32                  DMA3REQ = 0xb32
                    0x0b32                  _DMA3REQ = 0xb32
                    0x0b32                  _DMA3REQbits = 0xb32
                    0x0b34                  DMA3STAL = 0xb34
                    0x0b34                  _DMA3STAL = 0xb34
                    0x0b36                  DMA3STAH = 0xb36
                    0x0b36                  _DMA3STAH = 0xb36
                    0x0b36                  _DMA3STAHbits = 0xb36
                    0x0b38                  DMA3STBL = 0xb38
                    0x0b38                  _DMA3STBL = 0xb38
                    0x0b3a                  DMA3STBH = 0xb3a
                    0x0b3a                  _DMA3STBH = 0xb3a
                    0x0b3a                  _DMA3STBHbits = 0xb3a
                    0x0b3c                  DMA3PAD = 0xb3c
                    0x0b3c                  _DMA3PAD = 0xb3c
                    0x0b3e                  DMA3CNT = 0xb3e
                    0x0b3e                  _DMA3CNT = 0xb3e
                    0x0b3e                  _DMA3CNTbits = 0xb3e
                    0x0bf0                  DMAPWC = 0xbf0
                    0x0bf0                  _DMAPWC = 0xbf0
                    0x0bf0                  _DMAPWCbits = 0xbf0
                    0x0bf2                  DMARQC = 0xbf2
                    0x0bf2                  _DMARQC = 0xbf2
                    0x0bf2                  _DMARQCbits = 0xbf2
                    0x0bf4                  DMAPPS = 0xbf4
                    0x0bf4                  _DMAPPS = 0xbf4
                    0x0bf4                  _DMAPPSbits = 0xbf4
                    0x0bf6                  DMALCA = 0xbf6
                    0x0bf6                  _DMALCA = 0xbf6
                    0x0bf6                  _DMALCAbits = 0xbf6
                    0x0bf8                  DSADRL = 0xbf8
                    0x0bf8                  _DSADRL = 0xbf8
                    0x0bfa                  DSADRH = 0xbfa
                    0x0bfa                  _DSADRH = 0xbfa
                    0x0bfa                  _DSADRHbits = 0xbfa
                    0x0c00                  PTCON = 0xc00
                    0x0c00                  _PTCON = 0xc00
                    0x0c00                  _PTCONbits = 0xc00
                    0x0c02                  PTCON2 = 0xc02
                    0x0c02                  _PTCON2 = 0xc02
                    0x0c02                  _PTCON2bits = 0xc02
                    0x0c04                  PTPER = 0xc04
                    0x0c04                  _PTPER = 0xc04
                    0x0c06                  SEVTCMP = 0xc06
                    0x0c06                  _SEVTCMP = 0xc06
                    0x0c06                  _SEVTCMPbits = 0xc06
                    0x0c0a                  MDC = 0xc0a
                    0x0c0a                  _MDC = 0xc0a
                    0x0c0e                  STCON = 0xc0e
                    0x0c0e                  _STCON = 0xc0e
                    0x0c0e                  _STCONbits = 0xc0e
                    0x0c10                  STCON2 = 0xc10
                    0x0c10                  _STCON2 = 0xc10
                    0x0c10                  _STCON2bits = 0xc10
                    0x0c12                  STPER = 0xc12
                    0x0c12                  _STPER = 0xc12
                    0x0c14                  SSEVTCMP = 0xc14
                    0x0c14                  _SSEVTCMP = 0xc14
                    0x0c14                  _SSEVTCMPbits = 0xc14
                    0x0c1a                  CHOP = 0xc1a
                    0x0c1a                  _CHOP = 0xc1a
                    0x0c1a                  _CHOPbits = 0xc1a
                    0x0c1e                  PWMKEY = 0xc1e
                    0x0c1e                  _PWMKEY = 0xc1e
                    0x0c20                  PWMCON1 = 0xc20
                    0x0c20                  _PWMCON1 = 0xc20
                    0x0c20                  _PWMCON1bits = 0xc20
                    0x0c22                  IOCON1 = 0xc22
                    0x0c22                  _IOCON1 = 0xc22
                    0x0c22                  _IOCON1bits = 0xc22
                    0x0c24                  FCLCON1 = 0xc24
                    0x0c24                  _FCLCON1 = 0xc24
                    0x0c24                  _FCLCON1bits = 0xc24
                    0x0c26                  PDC1 = 0xc26
                    0x0c26                  _PDC1 = 0xc26
                    0x0c28                  PHASE1 = 0xc28
                    0x0c28                  _PHASE1 = 0xc28
                    0x0c2a                  DTR1 = 0xc2a
                    0x0c2a                  _DTR1 = 0xc2a
                    0x0c2c                  ALTDTR1 = 0xc2c
                    0x0c2c                  _ALTDTR1 = 0xc2c
                    0x0c2e                  SDC1 = 0xc2e
                    0x0c2e                  _SDC1 = 0xc2e
                    0x0c30                  SPHASE1 = 0xc30
                    0x0c30                  _SPHASE1 = 0xc30
                    0x0c32                  TRIG1 = 0xc32
                    0x0c32                  _TRIG1 = 0xc32
                    0x0c32                  _TRIG1bits = 0xc32
                    0x0c34                  TRGCON1 = 0xc34
                    0x0c34                  _TRGCON1 = 0xc34
                    0x0c34                  _TRGCON1bits = 0xc34
                    0x0c36                  STRIG1 = 0xc36
                    0x0c36                  _STRIG1 = 0xc36
                    0x0c36                  _STRIG1bits = 0xc36
                    0x0c38                  PWMCAP1 = 0xc38
                    0x0c38                  _PWMCAP1 = 0xc38
                    0x0c38                  _PWMCAP1bits = 0xc38
                    0x0c3a                  LEBCON1 = 0xc3a
                    0x0c3a                  _LEBCON1 = 0xc3a
                    0x0c3a                  _LEBCON1bits = 0xc3a
                    0x0c3c                  LEBDLY1 = 0xc3c
                    0x0c3c                  _LEBDLY1 = 0xc3c
                    0x0c3c                  _LEBDLY1bits = 0xc3c
                    0x0c3e                  AUXCON1 = 0xc3e
                    0x0c3e                  _AUXCON1 = 0xc3e
                    0x0c3e                  _AUXCON1bits = 0xc3e
                    0x0c40                  PWMCON2 = 0xc40
                    0x0c40                  _PWMCON2 = 0xc40
                    0x0c40                  _PWMCON2bits = 0xc40
                    0x0c42                  IOCON2 = 0xc42
                    0x0c42                  _IOCON2 = 0xc42
                    0x0c42                  _IOCON2bits = 0xc42
                    0x0c44                  FCLCON2 = 0xc44
                    0x0c44                  _FCLCON2 = 0xc44
                    0x0c44                  _FCLCON2bits = 0xc44
                    0x0c46                  PDC2 = 0xc46
                    0x0c46                  _PDC2 = 0xc46
                    0x0c48                  PHASE2 = 0xc48
                    0x0c48                  _PHASE2 = 0xc48
                    0x0c4a                  DTR2 = 0xc4a
                    0x0c4a                  _DTR2 = 0xc4a
                    0x0c4c                  ALTDTR2 = 0xc4c
                    0x0c4c                  _ALTDTR2 = 0xc4c
                    0x0c4e                  SDC2 = 0xc4e
                    0x0c4e                  _SDC2 = 0xc4e
                    0x0c50                  SPHASE2 = 0xc50
                    0x0c50                  _SPHASE2 = 0xc50
                    0x0c52                  TRIG2 = 0xc52
                    0x0c52                  _TRIG2 = 0xc52
                    0x0c52                  _TRIG2bits = 0xc52
                    0x0c54                  TRGCON2 = 0xc54
                    0x0c54                  _TRGCON2 = 0xc54
                    0x0c54                  _TRGCON2bits = 0xc54
                    0x0c56                  STRIG2 = 0xc56
                    0x0c56                  _STRIG2 = 0xc56
                    0x0c56                  _STRIG2bits = 0xc56
                    0x0c58                  PWMCAP2 = 0xc58
                    0x0c58                  _PWMCAP2 = 0xc58
                    0x0c58                  _PWMCAP2bits = 0xc58
                    0x0c5a                  LEBCON2 = 0xc5a
                    0x0c5a                  _LEBCON2 = 0xc5a
                    0x0c5a                  _LEBCON2bits = 0xc5a
                    0x0c5c                  LEBDLY2 = 0xc5c
                    0x0c5c                  _LEBDLY2 = 0xc5c
                    0x0c5c                  _LEBDLY2bits = 0xc5c
                    0x0c5e                  AUXCON2 = 0xc5e
                    0x0c5e                  _AUXCON2 = 0xc5e
                    0x0c5e                  _AUXCON2bits = 0xc5e
                    0x0c60                  PWMCON3 = 0xc60
                    0x0c60                  _PWMCON3 = 0xc60
                    0x0c60                  _PWMCON3bits = 0xc60
                    0x0c62                  IOCON3 = 0xc62
                    0x0c62                  _IOCON3 = 0xc62
                    0x0c62                  _IOCON3bits = 0xc62
                    0x0c64                  FCLCON3 = 0xc64
                    0x0c64                  _FCLCON3 = 0xc64
                    0x0c64                  _FCLCON3bits = 0xc64
                    0x0c66                  PDC3 = 0xc66
                    0x0c66                  _PDC3 = 0xc66
                    0x0c68                  PHASE3 = 0xc68
                    0x0c68                  _PHASE3 = 0xc68
                    0x0c6a                  DTR3 = 0xc6a
                    0x0c6a                  _DTR3 = 0xc6a
                    0x0c6c                  ALTDTR3 = 0xc6c
                    0x0c6c                  _ALTDTR3 = 0xc6c
                    0x0c6e                  SDC3 = 0xc6e
                    0x0c6e                  _SDC3 = 0xc6e
                    0x0c70                  SPHASE3 = 0xc70
                    0x0c70                  _SPHASE3 = 0xc70
                    0x0c72                  TRIG3 = 0xc72
                    0x0c72                  _TRIG3 = 0xc72
                    0x0c72                  _TRIG3bits = 0xc72
                    0x0c74                  TRGCON3 = 0xc74
                    0x0c74                  _TRGCON3 = 0xc74
                    0x0c74                  _TRGCON3bits = 0xc74
                    0x0c76                  STRIG3 = 0xc76
                    0x0c76                  _STRIG3 = 0xc76
                    0x0c76                  _STRIG3bits = 0xc76
                    0x0c78                  PWMCAP3 = 0xc78
                    0x0c78                  _PWMCAP3 = 0xc78
                    0x0c78                  _PWMCAP3bits = 0xc78
                    0x0c7a                  LEBCON3 = 0xc7a
                    0x0c7a                  _LEBCON3 = 0xc7a
                    0x0c7a                  _LEBCON3bits = 0xc7a
                    0x0c7c                  LEBDLY3 = 0xc7c
                    0x0c7c                  _LEBDLY3 = 0xc7c
                    0x0c7c                  _LEBDLY3bits = 0xc7c
                    0x0c7e                  AUXCON3 = 0xc7e
                    0x0c7e                  _AUXCON3 = 0xc7e
                    0x0c7e                  _AUXCON3bits = 0xc7e
                    0x0c80                  PWMCON4 = 0xc80
                    0x0c80                  _PWMCON4 = 0xc80
                    0x0c80                  _PWMCON4bits = 0xc80
                    0x0c82                  IOCON4 = 0xc82
                    0x0c82                  _IOCON4 = 0xc82
                    0x0c82                  _IOCON4bits = 0xc82
                    0x0c84                  FCLCON4 = 0xc84
                    0x0c84                  _FCLCON4 = 0xc84
                    0x0c84                  _FCLCON4bits = 0xc84
                    0x0c86                  PDC4 = 0xc86
                    0x0c86                  _PDC4 = 0xc86
                    0x0c88                  PHASE4 = 0xc88
                    0x0c88                  _PHASE4 = 0xc88
                    0x0c8a                  DTR4 = 0xc8a
                    0x0c8a                  _DTR4 = 0xc8a
                    0x0c8c                  ALTDTR4 = 0xc8c
                    0x0c8c                  _ALTDTR4 = 0xc8c
                    0x0c8e                  SDC4 = 0xc8e
                    0x0c8e                  _SDC4 = 0xc8e
                    0x0c90                  SPHASE4 = 0xc90
                    0x0c90                  _SPHASE4 = 0xc90
                    0x0c92                  TRIG4 = 0xc92
                    0x0c92                  _TRIG4 = 0xc92
                    0x0c92                  _TRIG4bits = 0xc92
                    0x0c94                  TRGCON4 = 0xc94
                    0x0c94                  _TRGCON4 = 0xc94
                    0x0c94                  _TRGCON4bits = 0xc94
                    0x0c96                  STRIG4 = 0xc96
                    0x0c96                  _STRIG4 = 0xc96
                    0x0c96                  _STRIG4bits = 0xc96
                    0x0c98                  PWMCAP4 = 0xc98
                    0x0c98                  _PWMCAP4 = 0xc98
                    0x0c98                  _PWMCAP4bits = 0xc98
                    0x0c9a                  LEBCON4 = 0xc9a
                    0x0c9a                  _LEBCON4 = 0xc9a
                    0x0c9a                  _LEBCON4bits = 0xc9a
                    0x0c9c                  LEBDLY4 = 0xc9c
                    0x0c9c                  _LEBDLY4 = 0xc9c
                    0x0c9c                  _LEBDLY4bits = 0xc9c
                    0x0c9e                  AUXCON4 = 0xc9e
                    0x0c9e                  _AUXCON4 = 0xc9e
                    0x0c9e                  _AUXCON4bits = 0xc9e
                    0x0ca0                  PWMCON5 = 0xca0
                    0x0ca0                  _PWMCON5 = 0xca0
                    0x0ca0                  _PWMCON5bits = 0xca0
                    0x0ca2                  IOCON5 = 0xca2
                    0x0ca2                  _IOCON5 = 0xca2
                    0x0ca2                  _IOCON5bits = 0xca2
                    0x0ca4                  FCLCON5 = 0xca4
                    0x0ca4                  _FCLCON5 = 0xca4
                    0x0ca4                  _FCLCON5bits = 0xca4
                    0x0ca6                  PDC5 = 0xca6
                    0x0ca6                  _PDC5 = 0xca6
                    0x0ca8                  PHASE5 = 0xca8
                    0x0ca8                  _PHASE5 = 0xca8
                    0x0caa                  DTR5 = 0xcaa
                    0x0caa                  _DTR5 = 0xcaa
                    0x0cac                  ALTDTR5 = 0xcac
                    0x0cac                  _ALTDTR5 = 0xcac
                    0x0cae                  SDC5 = 0xcae
                    0x0cae                  _SDC5 = 0xcae
                    0x0cb0                  SPHASE5 = 0xcb0
                    0x0cb0                  _SPHASE5 = 0xcb0
                    0x0cb2                  TRIG5 = 0xcb2
                    0x0cb2                  _TRIG5 = 0xcb2
                    0x0cb2                  _TRIG5bits = 0xcb2
                    0x0cb4                  TRGCON5 = 0xcb4
                    0x0cb4                  _TRGCON5 = 0xcb4
                    0x0cb4                  _TRGCON5bits = 0xcb4
                    0x0cb6                  STRIG5 = 0xcb6
                    0x0cb6                  _STRIG5 = 0xcb6
                    0x0cb6                  _STRIG5bits = 0xcb6
                    0x0cb8                  PWMCAP5 = 0xcb8
                    0x0cb8                  _PWMCAP5 = 0xcb8
                    0x0cb8                  _PWMCAP5bits = 0xcb8
                    0x0cba                  LEBCON5 = 0xcba
                    0x0cba                  _LEBCON5 = 0xcba
                    0x0cba                  _LEBCON5bits = 0xcba
                    0x0cbc                  LEBDLY5 = 0xcbc
                    0x0cbc                  _LEBDLY5 = 0xcbc
                    0x0cbc                  _LEBDLY5bits = 0xcbc
                    0x0cbe                  AUXCON5 = 0xcbe
                    0x0cbe                  _AUXCON5 = 0xcbe
                    0x0cbe                  _AUXCON5bits = 0xcbe
                    0x0cc0                  PWMCON6 = 0xcc0
                    0x0cc0                  _PWMCON6 = 0xcc0
                    0x0cc0                  _PWMCON6bits = 0xcc0
                    0x0cc2                  IOCON6 = 0xcc2
                    0x0cc2                  _IOCON6 = 0xcc2
                    0x0cc2                  _IOCON6bits = 0xcc2
                    0x0cc4                  FCLCON6 = 0xcc4
                    0x0cc4                  _FCLCON6 = 0xcc4
                    0x0cc4                  _FCLCON6bits = 0xcc4
                    0x0cc6                  PDC6 = 0xcc6
                    0x0cc6                  _PDC6 = 0xcc6
                    0x0cc8                  PHASE6 = 0xcc8
                    0x0cc8                  _PHASE6 = 0xcc8
                    0x0cca                  DTR6 = 0xcca
                    0x0cca                  _DTR6 = 0xcca
                    0x0ccc                  ALTDTR6 = 0xccc
                    0x0ccc                  _ALTDTR6 = 0xccc
                    0x0cce                  SDC6 = 0xcce
                    0x0cce                  _SDC6 = 0xcce
                    0x0cd0                  SPHASE6 = 0xcd0
                    0x0cd0                  _SPHASE6 = 0xcd0
                    0x0cd2                  TRIG6 = 0xcd2
                    0x0cd2                  _TRIG6 = 0xcd2
                    0x0cd2                  _TRIG6bits = 0xcd2
                    0x0cd4                  TRGCON6 = 0xcd4
                    0x0cd4                  _TRGCON6 = 0xcd4
                    0x0cd4                  _TRGCON6bits = 0xcd4
                    0x0cd6                  STRIG6 = 0xcd6
                    0x0cd6                  _STRIG6 = 0xcd6
                    0x0cd6                  _STRIG6bits = 0xcd6
                    0x0cd8                  PWMCAP6 = 0xcd8
                    0x0cd8                  _PWMCAP6 = 0xcd8
                    0x0cd8                  _PWMCAP6bits = 0xcd8
                    0x0cda                  LEBCON6 = 0xcda
                    0x0cda                  _LEBCON6 = 0xcda
                    0x0cda                  _LEBCON6bits = 0xcda
                    0x0cdc                  LEBDLY6 = 0xcdc
                    0x0cdc                  _LEBDLY6 = 0xcdc
                    0x0cdc                  _LEBDLY6bits = 0xcdc
                    0x0cde                  AUXCON6 = 0xcde
                    0x0cde                  _AUXCON6 = 0xcde
                    0x0cde                  _AUXCON6bits = 0xcde
                    0x0ce0                  PWMCON7 = 0xce0
                    0x0ce0                  _PWMCON7 = 0xce0
                    0x0ce0                  _PWMCON7bits = 0xce0
                    0x0ce2                  IOCON7 = 0xce2
                    0x0ce2                  _IOCON7 = 0xce2
                    0x0ce2                  _IOCON7bits = 0xce2
                    0x0ce4                  FCLCON7 = 0xce4
                    0x0ce4                  _FCLCON7 = 0xce4
                    0x0ce4                  _FCLCON7bits = 0xce4
                    0x0ce6                  PDC7 = 0xce6
                    0x0ce6                  _PDC7 = 0xce6
                    0x0ce8                  PHASE7 = 0xce8
                    0x0ce8                  _PHASE7 = 0xce8
                    0x0cea                  DTR7 = 0xcea
                    0x0cea                  _DTR7 = 0xcea
                    0x0cec                  ALTDTR7 = 0xcec
                    0x0cec                  _ALTDTR7 = 0xcec
                    0x0cee                  SDC7 = 0xcee
                    0x0cee                  _SDC7 = 0xcee
                    0x0cf0                  SPHASE7 = 0xcf0
                    0x0cf0                  _SPHASE7 = 0xcf0
                    0x0cf2                  TRIG7 = 0xcf2
                    0x0cf2                  _TRIG7 = 0xcf2
                    0x0cf2                  _TRIG7bits = 0xcf2
                    0x0cf4                  TRGCON7 = 0xcf4
                    0x0cf4                  _TRGCON7 = 0xcf4
                    0x0cf4                  _TRGCON7bits = 0xcf4
                    0x0cf6                  STRIG7 = 0xcf6
                    0x0cf6                  _STRIG7 = 0xcf6
                    0x0cf6                  _STRIG7bits = 0xcf6
                    0x0cf8                  PWMCAP7 = 0xcf8
                    0x0cf8                  _PWMCAP7 = 0xcf8
                    0x0cf8                  _PWMCAP7bits = 0xcf8
                    0x0cfa                  LEBCON7 = 0xcfa
                    0x0cfa                  _LEBCON7 = 0xcfa
                    0x0cfa                  _LEBCON7bits = 0xcfa
                    0x0cfc                  LEBDLY7 = 0xcfc
                    0x0cfc                  _LEBDLY7 = 0xcfc
                    0x0cfc                  _LEBDLY7bits = 0xcfc
                    0x0cfe                  AUXCON7 = 0xcfe
                    0x0cfe                  _AUXCON7 = 0xcfe
                    0x0cfe                  _AUXCON7bits = 0xcfe
                    0x0d00                  PWMCON8 = 0xd00
                    0x0d00                  _PWMCON8 = 0xd00
                    0x0d00                  _PWMCON8bits = 0xd00
                    0x0d02                  IOCON8 = 0xd02
                    0x0d02                  _IOCON8 = 0xd02
                    0x0d02                  _IOCON8bits = 0xd02
                    0x0d04                  FCLCON8 = 0xd04
                    0x0d04                  _FCLCON8 = 0xd04
                    0x0d04                  _FCLCON8bits = 0xd04
                    0x0d06                  PDC8 = 0xd06
                    0x0d06                  _PDC8 = 0xd06
                    0x0d08                  PHASE8 = 0xd08
                    0x0d08                  _PHASE8 = 0xd08
                    0x0d0a                  DTR8 = 0xd0a
                    0x0d0a                  _DTR8 = 0xd0a
                    0x0d0c                  ALTDTR8 = 0xd0c
                    0x0d0c                  _ALTDTR8 = 0xd0c
                    0x0d0e                  SDC8 = 0xd0e
                    0x0d0e                  _SDC8 = 0xd0e
                    0x0d10                  SPHASE8 = 0xd10
                    0x0d10                  _SPHASE8 = 0xd10
                    0x0d12                  TRIG8 = 0xd12
                    0x0d12                  _TRIG8 = 0xd12
                    0x0d12                  _TRIG8bits = 0xd12
                    0x0d14                  TRGCON8 = 0xd14
                    0x0d14                  _TRGCON8 = 0xd14
                    0x0d14                  _TRGCON8bits = 0xd14
                    0x0d16                  STRIG8 = 0xd16
                    0x0d16                  _STRIG8 = 0xd16
                    0x0d16                  _STRIG8bits = 0xd16
                    0x0d18                  PWMCAP8 = 0xd18
                    0x0d18                  _PWMCAP8 = 0xd18
                    0x0d18                  _PWMCAP8bits = 0xd18
                    0x0d1a                  LEBCON8 = 0xd1a
                    0x0d1a                  _LEBCON8 = 0xd1a
                    0x0d1a                  _LEBCON8bits = 0xd1a
                    0x0d1c                  LEBDLY8 = 0xd1c
                    0x0d1c                  _LEBDLY8 = 0xd1c
                    0x0d1c                  _LEBDLY8bits = 0xd1c
                    0x0d1e                  AUXCON8 = 0xd1e
                    0x0d1e                  _AUXCON8 = 0xd1e
                    0x0d1e                  _AUXCON8bits = 0xd1e
                    0x0e00                  TRISA = 0xe00
                    0x0e00                  _TRISA = 0xe00
                    0x0e00                  _TRISAbits = 0xe00
                    0x0e02                  PORTA = 0xe02
                    0x0e02                  _PORTA = 0xe02
                    0x0e02                  _PORTAbits = 0xe02
                    0x0e04                  LATA = 0xe04
                    0x0e04                  _LATA = 0xe04
                    0x0e04                  _LATAbits = 0xe04
                    0x0e06                  ODCA = 0xe06
                    0x0e06                  _ODCA = 0xe06
                    0x0e06                  _ODCAbits = 0xe06
                    0x0e08                  CNENA = 0xe08
                    0x0e08                  _CNENA = 0xe08
                    0x0e08                  _CNENAbits = 0xe08
                    0x0e0a                  CNPUA = 0xe0a
                    0x0e0a                  _CNPUA = 0xe0a
                    0x0e0a                  _CNPUAbits = 0xe0a
                    0x0e0c                  CNPDA = 0xe0c
                    0x0e0c                  _CNPDA = 0xe0c
                    0x0e0c                  _CNPDAbits = 0xe0c
                    0x0e0e                  ANSELA = 0xe0e
                    0x0e0e                  _ANSELA = 0xe0e
                    0x0e0e                  _ANSELAbits = 0xe0e
                    0x0e10                  TRISB = 0xe10
                    0x0e10                  _TRISB = 0xe10
                    0x0e10                  _TRISBbits = 0xe10
                    0x0e12                  PORTB = 0xe12
                    0x0e12                  _PORTB = 0xe12
                    0x0e12                  _PORTBbits = 0xe12
                    0x0e14                  LATB = 0xe14
                    0x0e14                  _LATB = 0xe14
                    0x0e14                  _LATBbits = 0xe14
                    0x0e16                  ODCB = 0xe16
                    0x0e16                  _ODCB = 0xe16
                    0x0e16                  _ODCBbits = 0xe16
                    0x0e18                  CNENB = 0xe18
                    0x0e18                  _CNENB = 0xe18
                    0x0e18                  _CNENBbits = 0xe18
                    0x0e1a                  CNPUB = 0xe1a
                    0x0e1a                  _CNPUB = 0xe1a
                    0x0e1a                  _CNPUBbits = 0xe1a
                    0x0e1c                  CNPDB = 0xe1c
                    0x0e1c                  _CNPDB = 0xe1c
                    0x0e1c                  _CNPDBbits = 0xe1c
                    0x0e1e                  ANSELB = 0xe1e
                    0x0e1e                  _ANSELB = 0xe1e
                    0x0e1e                  _ANSELBbits = 0xe1e
                    0x0e20                  TRISC = 0xe20
                    0x0e20                  _TRISC = 0xe20
                    0x0e20                  _TRISCbits = 0xe20
                    0x0e22                  PORTC = 0xe22
                    0x0e22                  _PORTC = 0xe22
                    0x0e22                  _PORTCbits = 0xe22
                    0x0e24                  LATC = 0xe24
                    0x0e24                  _LATC = 0xe24
                    0x0e24                  _LATCbits = 0xe24
                    0x0e26                  ODCC = 0xe26
                    0x0e26                  _ODCC = 0xe26
                    0x0e26                  _ODCCbits = 0xe26
                    0x0e28                  CNENC = 0xe28
                    0x0e28                  _CNENC = 0xe28
                    0x0e28                  _CNENCbits = 0xe28
                    0x0e2a                  CNPUC = 0xe2a
                    0x0e2a                  _CNPUC = 0xe2a
                    0x0e2a                  _CNPUCbits = 0xe2a
                    0x0e2c                  CNPDC = 0xe2c
                    0x0e2c                  _CNPDC = 0xe2c
                    0x0e2c                  _CNPDCbits = 0xe2c
                    0x0e2e                  ANSELC = 0xe2e
                    0x0e2e                  _ANSELC = 0xe2e
                    0x0e2e                  _ANSELCbits = 0xe2e
                    0x0fa0                  _APPO = 0xfa0
                    0x0fa0                  __APPO = 0xfa0
                    0x0fa2                  _APPIN = 0xfa2
                    0x0fa2                  __APPIN = 0xfa2
                    0x0fa4                  APPS = 0xfa4
                    0x0fa4                  _APPS = 0xfa4
                    0x0fa4                  _APPSbits = 0xfa4
                    0x0fa6                  STROUTL = 0xfa6
                    0x0fa6                  _STROUTL = 0xfa6
                    0x0fa8                  STROUTH = 0xfa8
                    0x0fa8                  _STROUTH = 0xfa8
                    0x0faa                  STROVCNT = 0xfaa
                    0x0faa                  _STROVCNT = 0xfaa
                    0x0ff0                  JDATAH = 0xff0
                    0x0ff0                  _JDATAH = 0xff0
                    0x0ff2                  JDATAL = 0xff2
                    0x0ff2                  _JDATAL = 0xff2
                    0x0022                  ACCA = 0x22
                    0x0022                  _ACCA = 0x22
                    0x0028                  ACCB = 0x28
                    0x0028                  _ACCB = 0x28
                    0x04c0                  CAN1 = 0x4c0
                    0x04c0                  _CAN1 = 0x4c0
                    0x07c0                  CAN2 = 0x7c0
                    0x07c0                  _CAN2 = 0x7c0
                    0x0144                  IC1 = 0x144
                    0x0144                  _IC1 = 0x144
                    0x014c                  IC2 = 0x14c
                    0x014c                  _IC2 = 0x14c
                    0x0154                  IC3 = 0x154
                    0x0154                  _IC3 = 0x154
                    0x015c                  IC4 = 0x15c
                    0x015c                  _IC4 = 0x15c
                    0x0904                  OC1 = 0x904
                    0x0904                  _OC1 = 0x904
                    0x090e                  OC2 = 0x90e
                    0x090e                  _OC2 = 0x90e
                    0x0918                  OC3 = 0x918
                    0x0918                  _OC3 = 0x918
                    0x0922                  OC4 = 0x922
                    0x0922                  _OC4 = 0x922
                    0x0220                  UART1 = 0x220
                    0x0220                  _UART1 = 0x220
                    0x0230                  UART2 = 0x230
                    0x0230                  _UART2 = 0x230
START GROUP
LOAD c:/program files/microchip/xc16/v2.10/bin/bin/../../lib\libc99-pic30-elf.a
LOAD c:/program files/microchip/xc16/v2.10/bin/bin/../../lib\libm-elf.a
LOAD c:/program files/microchip/xc16/v2.10/bin/bin/../../lib\libc99-elf.a
END GROUP
OUTPUT(dist/default/debug/blinky_button.X.debug.elf elf32-pic30)
LOAD /CW/_FSEC
LOAD jump_table
LOAD default_isr
LOAD data_init

.debug_pubtypes
                  0x000318        0x751
 .debug_pubtypes
                  0x000318         0xe4 build/default/debug/blinky1.o
 .debug_pubtypes
                  0x0003fc         0xd4 build/default/debug/blinky3.o
 .debug_pubtypes
                  0x0004d0        0x122 build/default/debug/bsp_dspic33ep128gs804.o
 .debug_pubtypes
                  0x0005f2         0xb8 build/default/debug/button2a.o
 .debug_pubtypes
                  0x0006aa         0xa8 build/default/debug/button2b.o
 .debug_pubtypes
                  0x000752         0xda build/default/debug/_ext/1564044098/sst_port.o
 .debug_pubtypes
                  0x00082c         0xde build/default/debug/_ext/1445274692/sst.o
 .debug_pubtypes
                  0x00090a         0x7d build/default/debug/main.o
 .debug_pubtypes
                  0x000987         0xe2 build/default/debug/system_dspic33ep128gs804.o

__c30_signature
                  0x000a69         0x8a
 __c30_signature
                  0x000a69          0x6 build/default/debug/blinky1.o
 __c30_signature
                  0x000a6f          0x6 build/default/debug/blinky3.o
 __c30_signature
                  0x000a75          0x6 build/default/debug/bsp_dspic33ep128gs804.o
 __c30_signature
                  0x000a7b          0x6 build/default/debug/button2a.o
 __c30_signature
                  0x000a81          0x6 build/default/debug/button2b.o
 __c30_signature
                  0x000a87          0x6 build/default/debug/_ext/1564044098/sst_port.o
 __c30_signature
                  0x000a8d          0x6 build/default/debug/_ext/1445274692/sst.o
 __c30_signature
                  0x000a93          0x6 build/default/debug/main.o
 __c30_signature
                  0x000a99          0x6 build/default/debug/system_dspic33ep128gs804.o
 __c30_signature
                  0x000a9f          0x6 c:/program files/microchip/xc16/v2.10/bin/bin/../../lib\libc99-pic30-elf.a(crt0_extendedep.o)
 __c30_signature
                  0x000aa5          0x6 c:/program files/microchip/xc16/v2.10/bin/bin/../../lib\libc99-pic30-elf.a(data_init_extended.o)
 __c30_signature
                  0x000aab          0x6 c:/program files/microchip/xc16/v2.10/bin/bin/../../lib\libc99-pic30-elf.a(feqltle.EP_o)
 __c30_signature
                  0x000ab1          0x6 c:/program files/microchip/xc16/v2.10/bin/bin/../../lib\libc99-pic30-elf.a(fgtge.EP_o)
 __c30_signature
                  0x000ab7          0x6 c:/program files/microchip/xc16/v2.10/bin/bin/../../lib\libc99-pic30-elf.a(fixunssfsi.EP_o)
 __c30_signature
                  0x000abd          0x6 c:/program files/microchip/xc16/v2.10/bin/bin/../../lib\libc99-pic30-elf.a(floatunsisf.EP_o)
 __c30_signature
                  0x000ac3          0x6 c:/program files/microchip/xc16/v2.10/bin/bin/../../lib\libc99-pic30-elf.a(funpack.EP_o)
 __c30_signature
                  0x000ac9          0x6 c:/program files/microchip/xc16/v2.10/bin/bin/../../lib\libc99-pic30-elf.a(errno.EP_o)
 __c30_signature
                  0x000acf          0x6 c:/program files/microchip/xc16/v2.10/bin/bin/../../lib\libc99-pic30-elf.a(fcompare.EP_o)
 __c30_signature
                  0x000ad5          0x6 c:/program files/microchip/xc16/v2.10/bin/bin/../../lib\libc99-pic30-elf.a(floatundisf.EP_o)
 __c30_signature
                  0x000adb          0x6 c:/program files/microchip/xc16/v2.10/bin/bin/../../lib\libc99-pic30-elf.a(fpack.EP_o)
 __c30_signature
                  0x000ae1          0x6 c:/program files/microchip/xc16/v2.10/bin/bin/../../lib\libc99-pic30-elf.a(funpack2.EP_o)
 __c30_signature
                  0x000ae7          0x6 c:/program files/microchip/xc16/v2.10/bin/bin/../../lib\libm-elf.a(sqrtf.EP_o)
 __c30_signature
                  0x000aed          0x6 c:/program files/microchip/xc16/v2.10/bin/bin/../../lib\libc99-elf.a(__errno_location.EP_o)

.nbss               0x1050         0x16
 .nbss              0x1050          0x8 build/default/debug/bsp_dspic33ep128gs804.o
 .nbss              0x1058          0x8 build/default/debug/main.o
 .nbss              0x1060          0x2 build/default/debug/_ext/1564044098/sst_port.o
                    0x1060                  _g_crit_counter
 .nbss              0x1062          0x2 build/default/debug/_ext/1445274692/sst.o
 .nbss              0x1064          0x2 c:/program files/microchip/xc16/v2.10/bin/bin/../../lib\libc99-pic30-elf.a(errno.EP_o)
                    0x1064                  _errno

.bss                0x1066         0x82
 .bss               0x1066         0x30 build/default/debug/main.o
 .bss               0x1096         0x1a build/default/debug/blinky1.o
 .bss               0x10b0         0x1a build/default/debug/blinky3.o
 .bss               0x10ca          0xe build/default/debug/button2a.o
 .bss               0x10d8          0xe build/default/debug/button2b.o
 .bss               0x10e6          0x2 c:/program files/microchip/xc16/v2.10/bin/bin/../../lib\libc99-elf.a(__errno_location.EP_o)
                    0x10e6                  ___errno_val

.ivt._T1Interrupt
                  0x00001a          0x2
 .ivt._T1Interrupt
                  0x00001a          0x2 build/default/debug/bsp_dspic33ep128gs804.o

.ivt._PTG0Interrupt
                  0x00013a          0x2
 .ivt._PTG0Interrupt
                  0x00013a          0x2 build/default/debug/bsp_dspic33ep128gs804.o

.ivt._PTG1Interrupt
                  0x00013c          0x2
 .ivt._PTG1Interrupt
                  0x00013c          0x2 build/default/debug/bsp_dspic33ep128gs804.o

.ivt._PTG2Interrupt
                  0x00013e          0x2
 .ivt._PTG2Interrupt
                  0x00013e          0x2 build/default/debug/bsp_dspic33ep128gs804.o

.ivt._PTG3Interrupt
                  0x000140          0x2
 .ivt._PTG3Interrupt
                  0x000140          0x2 build/default/debug/bsp_dspic33ep128gs804.o

.config_IBSEQ     0x0157fc          0x2
 .config_IBSEQ    0x0157fc          0x2 build/default/debug/main.o

.config_CTXT4     0x0157b0          0x2
 .config_CTXT4    0x0157b0          0x2 build/default/debug/main.o

.config_DBCC      0x0157ac          0x2
 .config_DBCC     0x0157ac          0x2 build/default/debug/main.o

.config_BTSWP     0x0157a8          0x2
 .config_BTSWP    0x0157a8          0x2 build/default/debug/main.o

.config_WDTWIN    0x0157a0          0x2
 .config_WDTWIN
                  0x0157a0          0x2 build/default/debug/main.o

.config_PLLKEN    0x01579c          0x2
 .config_PLLKEN
                  0x01579c          0x2 build/default/debug/main.o

.config_IESO      0x015798          0x2
 .config_IESO     0x015798          0x2 build/default/debug/main.o

.config_BSLIM     0x015790          0x2
 .config_BSLIM    0x015790          0x2 build/default/debug/main.o

.const              0x8cd8         0x6e load address 0x000cd8  
 .const             0x8cd8         0x34 build/default/debug/bsp_dspic33ep128gs804.o
 .const             0x8d0c          0xc build/default/debug/button2a.o
                    0x8d16                  _AO_Button2a
 .const             0x8d18          0xc build/default/debug/button2b.o
                    0x8d22                  _AO_Button2b
 .const             0x8d24          0xa build/default/debug/blinky1.o
                    0x8d2c                  _AO_Blinky1
 .const             0x8d2e          0xa build/default/debug/blinky3.o
                    0x8d36                  _AO_Blinky3
 .const             0x8d38          0xa build/default/debug/_ext/1564044098/sst_port.o
 .const             0x8d42          0x4 build/default/debug/_ext/1445274692/sst.o

.text             0x000d46        0xc7a
 .text            0x000d46        0x32a build/default/debug/bsp_dspic33ep128gs804.o
                  0x000d46                  _SysTick_Handler
                  0x000e32                  _DBC_fault_handler
                  0x000e7e                  _assert_failed
                  0x000e8e                  _BSP_init
                  0x000f4e                  _BSP_d1on
                  0x000f5c                  _BSP_d1off
                  0x000f6a                  _BSP_d2on
                  0x000f7e                  _BSP_d2off
                  0x000f8c                  _BSP_d3on
                  0x000fa0                  _BSP_d3off
                  0x000fae                  _BSP_d4on
                  0x000fc2                  _BSP_d4off
                  0x000fd0                  _BSP_d5on
                  0x000fe4                  _BSP_d5off
                  0x000ff2                  _BSP_d6on
                  0x001006                  _BSP_d6off
                  0x001014                  _BSP_getWorkEvtBlinky1
                  0x001032                  _BSP_getWorkEvtBlinky3
                  0x001050                  _SST_onStart
                  0x001066                  _SST_onIdle
 .text            0x001070        0x266 build/default/debug/system_dspic33ep128gs804.o
                  0x001070                  _gpio_set_level
                  0x00109e                  _gpio_get_level
                  0x0010ba                  _gpio_set_direction
                  0x0011dc                  _SysTick_Config
                  0x00123e                  _SystemCoreClockUpdate
                  0x00124e                  _dspic_SystemReset
                  0x001256                  _interrupt_SetPriority
                  0x0012ac                  _interrupt_Enable
 .text            0x0012d6        0x204 build/default/debug/_ext/1445274692/sst.o
                  0x0012d6                  _SST_Task_run
                  0x0012e0                  _SST_Task_ctor
                  0x0012f8                  _SST_Task_start
                  0x001350                  _SST_Task_post
                  0x0013cc                  _SST_TimeEvt_ctor
                  0x0013fa                  _SST_TimeEvt_arm
                  0x001428                  _SST_TimeEvt_disarm
                  0x001462                  _SST_TimeEvt_tick
 .text            0x0014da        0x1d4 build/default/debug/_ext/1564044098/sst_port.o
                  0x00155a                  _SST_init
                  0x001560                  _SST_start
                  0x001566                  _SST_Task_setPrio
                  0x0015c8                  _SST_Task_activate
                  0x00164e                  _SST_Task_setIRQ
                  0x001660                  _SST_Task_lock
                  0x001690                  _SST_Task_unlock
 .text            0x0016ae         0xc0 build/default/debug/button2a.o
                  0x0016ae                  _Button2a_instantiate
                  0x0016c8                  build/default/debug/button2a.o:_Button2a_init
                  0x0016d2                  build/default/debug/button2a.o:_Button2a_dispatch
 .text            0x00176e         0xbe build/default/debug/blinky1.o
                  0x00176e                  _Blinky1_instantiate
                  0x001794                  build/default/debug/blinky1.o:_Blinky1_init
                  0x0017cc                  build/default/debug/blinky1.o:_Blinky1_dispatch
 .text            0x00182c         0xb4 build/default/debug/blinky3.o
                  0x00182c                  _Blinky3_instantiate
                  0x001852                  build/default/debug/blinky3.o:_Blinky3_init
                  0x00188a                  build/default/debug/blinky3.o:_Blinky3_dispatch
 .text            0x0018e0         0x90 build/default/debug/button2b.o
                  0x0018e0                  _Button2b_instantiate
                  0x0018fa                  build/default/debug/button2b.o:_Button2b_init
                  0x001904                  build/default/debug/button2b.o:_Button2b_dispatch
 .text            0x001970         0x50 build/default/debug/main.o
                  0x001970                  _main

.dinit            0x0019c0         0x44
 .dinit           0x0019c0         0x44 data_init
